(lp1
(VUniversity of California, Berkeley
p2
I71
tp3
a(VHack Reactor
p4
I45
tp5
a(VStanford University
p6
I37
tp7
a(VUniversity of California, San Diego
p8
I27
tp9
a(VUniversity of California, Los Angeles
p10
I26
tp11
a(VGeneral Assembly
p12
I23
tp13
a(VUniversity of Illinois at Urbana-Champaign
p14
I20
tp15
a(VUniversity of Southern California
p16
I18
tp17
a(VCornell University
p18
I17
tp19
a(VMassachusetts Institute of Technology
p20
I17
tp21
a(VUniversity of California, Davis
p22
I17
tp23
a(VGeorgia Institute of Technology
p24
I16
tp25
a(VCarnegie Mellon University
p26
I16
tp27
a(VUniversity of Michigan
p28
I16
tp29
a(VHackbright Academy
p30
I16
tp31
a(VUniversity of California, Santa Cruz
p32
I16
tp33
a(VFree Code Camp
p34
I14
tp35
a(VCalifornia Polytechnic State University-San Luis Obispo
p36
I14
tp37
a(VSan Francisco State University
p38
I14
tp39
a(VUniversity of California, Santa Barbara
p40
I14
tp41
a(VRochester Institute of Technology
p42
I13
tp43
a(VHarvard University
p44
I13
tp45
a(VSan Jose State University
p46
I13
tp47
a(VUniversity of California, Irvine
p48
I12
tp49
a(VApp Academy
p50
I12
tp51
a(VUniversity of Maryland College Park
p52
I11
tp53
a(VUniversity of Virginia
p54
I11
tp55
a(VUniversity of Waterloo
p56
I10
tp57
a(VDev Bootcamp
p58
I10
tp59
a(VNew York University
p60
I9
tp61
a(VDuke University
p62
I9
tp63
a(VCity College of San Francisco
p64
I9
tp65
a(VPurdue University
p66
I9
tp67
a(VUdacity
p68
I9
tp69
a(VUniversity of Pennsylvania
p70
I9
tp71
a(VWashington University in St. Louis
p72
I8
tp73
a(VUniversity of Washington
p74
I8
tp75
a(VYale University
p76
I8
tp77
a(VNorthwestern University
p78
I7
tp79
a(VUniversity of California, Riverside
p80
I7
tp81
a(VCalifornia State University-Northridge
p82
I7
tp83
a(VMichigan State University
p84
I6
tp85
a(VThe Johns Hopkins University
p86
I6
tp87
a(VColumbia University in the City of New York
p88
I6
tp89
a(VGeorge Mason University
p90
I6
tp91
a(VDartmouth College
p92
I6
tp93
a(VPalomar College
p94
I6
tp95
a(VArizona State University
p96
I6
tp97
a(VTufts University
p98
I6
tp99
a(VOregon State University
p100
I6
tp101
a.