(lp1
(VSan Francisco Bay Area
p2
I571
tp3
a(VSan Francisco, California
p4
I256
tp5
a(VGreater Los Angeles Area
p6
I67
tp7
a(VLos Angeles, California
p8
I39
tp9
a(VBerkeley, California
p10
I28
tp11
a(VGreater San Diego Area
p12
I27
tp13
a(VSan Jose, California
p14
I26
tp15
a(VMountain View, California
p16
I20
tp17
a(VOakland, California
p18
I18
tp19
a(VSan Diego, California
p20
I16
tp21
a.