(dp1
S'alena1108'
p2
(S'https://www.linkedin.com/in/alena-prokharchyk-a7b28213'
I142000
tp3
sS'wmathurin'
p4
(S'https://www.linkedin.com/in/wolfgang-mathurin-694a161'
I96000
tp5
sS'btholt'
p6
(S'https://www.linkedin.com/in/btholt'
I77000
tp7
sS'MrBenJ'
p8
(S'https://www.linkedin.com/in/benjunya'
I124000
tp9
sS'agganderson'
p10
(S'https://www.linkedin.com/in/aliganderson'
I77000
tp11
sS'dwabyick'
p12
(S'https://www.linkedin.com/in/danielwabyick'
I140000
tp13
sS'cooperq'
p14
(S'https://www.linkedin.com/in/cooper-quintin-932029125'
I76000
tp15
sS'nicolaka'
p16
(S'https://www.linkedin.com/in/nicola-kabar-9111b91a'
I136000
tp17
sS'mash99'
p18
(S'https://www.linkedin.com/in/maheshmurag'
I100000
tp19
sS'waltertan12'
p20
(S'https://www.linkedin.com/in/waltertan12'
I79000
tp21
sS'phoenixeliot'
p22
(S'https://www.linkedin.com/in/phoenixeliot'
I95000
tp23
sS'gpapilion'
p24
(S'https://www.linkedin.com/in/geoffpapilion'
I153000
tp25
sS'smackesey'
p26
(S'https://www.linkedin.com/in/sean-mackesey-42640a8a'
I70000
tp27
sS'atomiccc'
p28
(S'https://www.linkedin.com/in/pmispagel'
I126000
tp29
sS'Keita1'
p30
(S'https://www.linkedin.com/in/keitabroadwater'
I115000
tp31
sS'brianmario'
p32
(S'https://www.linkedin.com/in/brianmario'
I156000
tp33
sS'mattfxyz'
p34
(S'https://www.linkedin.com/in/matthewfaluotico'
I138000
tp35
sS'zacharyvoase'
p36
(S'https://www.linkedin.com/in/zackvoase'
I120000
tp37
sS'ehalferty'
p38
(S'https://www.linkedin.com/in/edhalferty'
I128000
tp39
sS'11xor6'
p40
(S'https://www.linkedin.com/in/nhodgkinson'
I131000
tp41
sS'stefanlasiewski'
p42
(S'https://www.linkedin.com/in/stefanlasiewski'
I117000
tp43
sS'unthunk'
p44
(S'https://www.linkedin.com/in/unthunk'
I201000
tp45
sS'elaineo'
p46
(S'https://www.linkedin.com/in/elaineo'
I77000
tp47
sS'buholzer'
p48
(S'https://www.linkedin.com/in/buholzer'
I148000
tp49
sS'seanrose'
p50
(S'https://www.linkedin.com/in/seanarose'
I35000
tp51
sS'mintindeed'
p52
(S'https://www.linkedin.com/in/gabrielkoen'
I114000
tp53
sS'caseybecking'
p54
(S'https://www.linkedin.com/in/caseybecking'
I97000
tp55
sS'jaredsburrows'
p56
(S'https://www.linkedin.com/in/jaredsburrows'
I120000
tp57
sS'jgowdy'
p58
(S'https://www.linkedin.com/in/jgowdy'
I105000
tp59
sS'fredyang'
p60
(S'https://www.linkedin.com/in/fredyangss'
I102000
tp61
sS'alicenguyen'
p62
(S'https://www.linkedin.com/in/alice-nguyen'
I77000
tp63
sS'indragiek'
p64
(S'https://www.linkedin.com/in/indragie'
I109000
tp65
sS'jquast'
p66
(S'https://www.linkedin.com/in/jquast'
I57000
tp67
sS'leaena'
p68
(S'https://www.linkedin.com/in/leaena'
I77000
tp69
sS'louisfeng'
p70
(S'https://www.linkedin.com/in/louisfeng'
I77000
tp71
sS'rossdylan'
p72
(S'https://www.linkedin.com/in/ross-delinger-4a541a48'
I139000
tp73
sS'teachrdan'
p74
(S'https://www.linkedin.com/in/dants'
I136000
tp75
sS'wonjohnchoi'
p76
(S'https://www.linkedin.com/in/wonjohn-choi-521b2441'
I74000
tp77
sS'stevegury'
p78
(S'https://www.linkedin.com/in/stevegury'
I102000
tp79
sS'shubhamvadhera'
p80
(S'https://www.linkedin.com/in/shubhamvadhera'
I95000
tp81
sS'jamuraa'
p82
(S'https://www.linkedin.com/in/jamuraa'
I77000
tp83
sS'kevincon'
p84
(S'https://www.linkedin.com/in/kevincon'
I57000
tp85
sS'kharland'
p86
(S'https://www.linkedin.com/in/kendal-harland-19376889'
I149000
tp87
sS'gregghanano'
p88
(S'https://www.linkedin.com/in/gregghanano'
I95000
tp89
sS'justinthareja'
p90
(S'https://www.linkedin.com/in/justinthareja'
I96000
tp91
sS'chriseppstein'
p92
(S'https://www.linkedin.com/in/chriseppstein'
I123000
tp93
sS'aaronblohowiak'
p94
(S'https://www.linkedin.com/in/aaronblohowiak'
I136000
tp95
sS'josneville'
p96
(S'https://www.linkedin.com/in/neville-jos-2a192463'
I185000
tp97
sS'slurmulon'
p98
(S'https://www.linkedin.com/in/evavro'
I95000
tp99
sS'raymassie'
p100
(S'https://www.linkedin.com/in/raymassie'
I67000
tp101
sS'stevenjing'
p102
(S'https://www.linkedin.com/in/stevenjing'
I77000
tp103
sS'ehsalazar'
p104
(S'https://www.linkedin.com/in/ehsalazar'
I57000
tp105
sS'olmectech'
p106
(S'https://www.linkedin.com/in/curran-woodward-79032a10'
I113000
tp107
sS'aristiden7o'
p108
(S'https://www.linkedin.com/in/aristideniyungeko'
I95000
tp109
sS'jshiv'
p110
(S'https://www.linkedin.com/in/jason-shiverick-2a9b7b16'
I125000
tp111
sS'angrobertsh'
p112
(S'https://www.linkedin.com/in/angrobert'
I57000
tp113
sS'kozlitinaelja'
p114
(S'https://www.linkedin.com/in/elnara-kozlitina-a1289174'
I96000
tp115
sS'bukzor'
p116
(S'https://www.linkedin.com/in/buck-evan-3682a721'
I142000
tp117
sS'SamanthaRadocchia'
p118
(S'https://www.linkedin.com/in/samantharadocchia'
I62000
tp119
sS'jdunck'
p120
(S'https://www.linkedin.com/in/jeremy-dunck-64b3231'
I96000
tp121
sS'nokane'
p122
(S'https://www.linkedin.com/in/nokane'
I69000
tp123
sS'sprjr'
p124
(S'https://www.linkedin.com/in/sprjr'
I153000
tp125
sS'nealwu'
p126
(S'https://www.linkedin.com/in/nealwu'
I77000
tp127
sS'tristanz'
p128
(S'https://www.linkedin.com/in/tristanzajonc'
I157000
tp129
sS'ethanp'
p130
(S'https://www.linkedin.com/in/ethpet'
I140000
tp131
sS'aks'
p132
(S'https://www.linkedin.com/in/akstebbens'
I102000
tp133
sS'Nitinkumar-Gove'
p134
(S'https://www.linkedin.com/in/nitinkumargove'
I63000
tp135
sS'irabinovitch'
p136
(S'https://www.linkedin.com/in/irabinovitch'
I171000
tp137
sS'ehlertij'
p138
(S'https://www.linkedin.com/in/ian-ehlert-68a9129'
I133000
tp139
sS'taylorleese'
p140
(S'https://www.linkedin.com/in/taylorleese'
I148000
tp141
sS'staringispolite'
p142
(S'https://www.linkedin.com/in/staringispolite'
I57000
tp143
sS'rajaraodv'
p144
(S'https://www.linkedin.com/in/rajaraodv'
I117000
tp145
sS'ewinslow'
p146
(S'https://www.linkedin.com/in/ewinslow'
I106000
tp147
sS'cchyung'
p148
(S'https://www.linkedin.com/in/connerchyung'
I118000
tp149
sS'jonahaga'
p150
(S'https://www.linkedin.com/in/jonahaga'
I96000
tp151
sS'mattwkelly'
p152
(S'https://www.linkedin.com/in/mattwkelly'
I77000
tp153
sS'EmbeddedLinuxGuy'
p154
(S'https://www.linkedin.com/in/zzbik'
I95000
tp155
sS'wlan0'
p156
(S'https://www.linkedin.com/in/wlan0'
I136000
tp157
sS'bdehamer'
p158
(S'https://www.linkedin.com/in/bdehamer'
I102000
tp159
sS'spike'
p160
(S'https://www.linkedin.com/in/frenchaccent'
I150000
tp161
sS'craimbert'
p162
(S'https://www.linkedin.com/in/charlesraimbert'
I144000
tp163
sS'forrestbthomas'
p164
(S'https://www.linkedin.com/in/forrestbthomas'
I110000
tp165
sS'jkatsnelson'
p166
(S'https://www.linkedin.com/in/johnkatsnelson'
I129000
tp167
sS'pcsforeducation'
p168
(S'https://www.linkedin.com/in/joshgachnang'
I102000
tp169
sS'Zeelot'
p170
(S'https://www.linkedin.com/in/zeelot'
I102000
tp171
sS'pelletier'
p172
(S'https://www.linkedin.com/in/tpelletier'
I117000
tp173
sS'ArtTucker'
p174
(S'https://www.linkedin.com/in/arttucker'
I77000
tp175
sS'kishore-narendran'
p176
(S'https://www.linkedin.com/in/kishorenarendran'
I57000
tp177
sS'mqprichard'
p178
(S'https://www.linkedin.com/in/mprichard'
I26000
tp179
sS'CroquetPro'
p180
(S'https://www.linkedin.com/in/croquetpro'
I77000
tp181
sS'clarson283'
p182
(S'https://www.linkedin.com/in/clarson283'
I47000
tp183
sS'acoravos'
p184
(S'https://www.linkedin.com/in/andreacoravos'
I74000
tp185
sS'NoahKunin'
p186
(S'https://www.linkedin.com/in/noahkunin'
I96000
tp187
sS'esigler'
p188
(S'https://www.linkedin.com/in/esigler'
I77000
tp189
sS'greggroth'
p190
(S'https://www.linkedin.com/in/greggoryrothmeier'
I139000
tp191
sS'aheckmann'
p192
(S'https://www.linkedin.com/in/aaronheckmann'
I109000
tp193
sS'RashmiNalwad'
p194
(S'https://www.linkedin.com/in/rashminalwad'
I113000
tp195
sS'ruckus'
p196
(S'https://www.linkedin.com/in/codycaughlan'
I133000
tp197
sS'kilianc'
p198
(S'https://www.linkedin.com/in/kilianciuffolo'
I96000
tp199
sS'stevederico'
p200
(S'https://www.linkedin.com/in/stevederico'
I146000
tp201
sS'mtougeron'
p202
(S'https://www.linkedin.com/in/mtougeron'
I154000
tp203
sS'haxney'
p204
(S'https://www.linkedin.com/in/haxney'
I142000
tp205
sS'aventurella'
p206
(S'https://www.linkedin.com/in/adam-venturella-5a71392'
I81000
tp207
sS'bcbroussard'
p208
(S'https://www.linkedin.com/in/bcbroussard'
I82000
tp209
sS'corytheboyd'
p210
(S'https://www.linkedin.com/in/corytheboyd'
I57000
tp211
sS'michaelleinweaver'
p212
(S'https://www.linkedin.com/in/michaelleinweaver'
I69000
tp213
sS'tannermares'
p214
(S'https://www.linkedin.com/in/tannermares'
I68000
tp215
sS'mpemer'
p216
(S'https://www.linkedin.com/in/marcuspemer'
I66000
tp217
sS'philelauria'
p218
(S'https://www.linkedin.com/in/philelauria'
I95000
tp219
sS'jeshuaborges'
p220
(S'https://www.linkedin.com/in/jeshua'
I111000
tp221
sS'jeffmay'
p222
(S'https://www.linkedin.com/in/jeffsmay'
I191000
tp223
sS'brandonaaskov'
p224
(S'https://www.linkedin.com/in/brandonaaskov'
I94000
tp225
sS'sdsunjay'
p226
(S'https://www.linkedin.com/in/sdsunjay'
I100000
tp227
sS'MeredithU'
p228
(S'https://www.linkedin.com/in/meredithunderell'
I108000
tp229
sS'magneland'
p230
(S'https://www.linkedin.com/in/magneland'
I57000
tp231
sS'rewonc'
p232
(S'https://www.linkedin.com/in/rewonchild'
I146000
tp233
sS'chrisdonahue'
p234
(S'https://www.linkedin.com/in/chrisdonahue'
I58000
tp235
sS'jasobrown'
p236
(S'https://www.linkedin.com/in/jasontbrown'
I41000
tp237
sS'alpascual'
p238
(S'https://www.linkedin.com/in/alpascual'
I79000
tp239
sS'sveinburne'
p240
(S'https://www.linkedin.com/in/jules-randolph-62901181'
I75000
tp241
sS'abadri'
p242
(S'https://www.linkedin.com/in/abilashbadri'
I152000
tp243
sS'JustinHop'
p244
(S'https://www.linkedin.com/in/justinhop'
I83000
tp245
sS'ianserlin'
p246
(S'https://www.linkedin.com/in/ianserlin'
I75000
tp247
sS'tkissing'
p248
(S'https://www.linkedin.com/in/timo-kissing-328b3136'
I88000
tp249
sS'KyleAsaff'
p250
(S'https://www.linkedin.com/in/kyleasaff'
I128000
tp251
sS'alekstorm'
p252
(S'https://www.linkedin.com/in/alekstorm'
I139000
tp253
sS'chemoish'
p254
(S'https://www.linkedin.com/in/careyhinoki'
I112000
tp255
sS'gregjopa'
p256
(S'https://www.linkedin.com/in/gregjopa'
I110000
tp257
sS'jordonwii'
p258
(S'https://www.linkedin.com/in/jordon-wing-1727ba23'
I60000
tp259
sS'michikono'
p260
(S'https://www.linkedin.com/in/michikono'
I92000
tp261
sS'lisamcho'
p262
(S'https://www.linkedin.com/in/lisamcho'
I141000
tp263
sS'ethankennerly'
p264
(S'https://www.linkedin.com/in/kennerly'
I96000
tp265
sS'brynbodayle'
p266
(S'https://www.linkedin.com/in/brynbodayle'
I153000
tp267
sS'eideal'
p268
(S'https://www.linkedin.com/in/emmaideal'
I116000
tp269
sS'SidneyAllen'
p270
(S'https://www.linkedin.com/in/sidney-maestre-053008b7'
I71000
tp271
sS'marcellodesales'
p272
(S'https://www.linkedin.com/in/marcellodesales'
I102000
tp273
sS'mooeypoo'
p274
(S'https://www.linkedin.com/in/moriel'
I129000
tp275
sS'vimalthilak'
p276
(S'https://www.linkedin.com/in/vimalthilak'
I77000
tp277
sS'bryanchang'
p278
(S'https://www.linkedin.com/in/bryankchang'
I85000
tp279
sS'arasmussen'
p280
(S'https://www.linkedin.com/in/anrasmussen'
I57000
tp281
sS'alunny'
p282
(S'https://www.linkedin.com/in/andrew-lunny-b97724103'
I101000
tp283
sS'aoriani'
p284
(S'https://www.linkedin.com/in/aoriani'
I143000
tp285
sS'jatinpandey'
p286
(S'https://www.linkedin.com/in/jatinpandey'
I57000
tp287
sS'sharadmv'
p288
(S'https://www.linkedin.com/in/elucify'
I52000
tp289
sS'breckinloggins'
p290
(S'https://www.linkedin.com/in/breckin-loggins-baa2589'
I134000
tp291
sS'mattetti'
p292
(S'https://www.linkedin.com/in/mattaimonetti'
I104000
tp293
sS'jonathontoon'
p294
(S'https://www.linkedin.com/in/jonathontoon'
I90000
tp295
sS'razfar'
p296
(S'https://www.linkedin.com/in/razfar'
I136000
tp297
sS'semipermeable'
p298
(S'https://www.linkedin.com/in/jay-moorthi-7b0b44'
I95000
tp299
sS'pius'
p300
(S'https://www.linkedin.com/in/piusuzamere'
I96000
tp301
sS'RheaLevine'
p302
(S'https://www.linkedin.com/in/rhealevine'
I71000
tp303
sS'jagill'
p304
(S'https://www.linkedin.com/in/jagill'
I89000
tp305
sS'devender'
p306
(S'https://www.linkedin.com/in/devender'
I120000
tp307
sS'rachelslaybaugh'
p308
(S'https://www.linkedin.com/in/rslaybaugh'
I73000
tp309
sS'brianriley'
p310
(S'https://www.linkedin.com/in/briangriley'
I102000
tp311
sS'nyergler'
p312
(S'https://www.linkedin.com/in/nathanyergler'
I136000
tp313
sS'6C1'
p314
(S'https://www.linkedin.com/in/cooperstimson'
I131000
tp315
sS'sdemjanenko'
p316
(S'https://www.linkedin.com/in/sdemjanenko'
I118000
tp317
sS'jessgrinberg'
p318
(S'https://www.linkedin.com/in/jessgrinberg'
I76000
tp319
sS'sburnett'
p320
(S'https://www.linkedin.com/in/samburnett'
I39000
tp321
sS'franckverrot'
p322
(S'https://www.linkedin.com/in/franckverrot'
I136000
tp323
sS'soniabrami'
p324
(S'https://www.linkedin.com/in/soniabrahmi'
I77000
tp325
sS'briney'
p326
(S'https://www.linkedin.com/in/bryan-briney-67626539'
I62000
tp327
sS'treindle'
p328
(S'https://www.linkedin.com/in/tdogg-productions-56b209a2'
I29000
tp329
sS'anthonysutardja'
p330
(S'https://www.linkedin.com/in/anthonysutardja'
I93000
tp331
sS'mrorii'
p332
(S'https://www.linkedin.com/in/naokiorii'
I95000
tp333
sS'ocorso'
p334
(S'https://www.linkedin.com/in/owencorso'
I117000
tp335
sS'jbitely'
p336
(S'https://www.linkedin.com/in/jbitely'
I96000
tp337
sS'wbinnssmith'
p338
(S'https://www.linkedin.com/in/wbinnssmith'
I140000
tp339
sS'bpeynetti'
p340
(S'https://www.linkedin.com/in/bpeynetti'
I67000
tp341
sS'swolfand'
p342
(S'https://www.linkedin.com/in/samwolfand'
I136000
tp343
sS'chrismiles'
p344
(S'https://www.linkedin.com/in/chrismiles1'
I61000
tp345
sS'dmi3y'
p346
(S'https://www.linkedin.com/in/dmitrylapshukov'
I84000
tp347
sS'kbuckler'
p348
(S'https://www.linkedin.com/in/kbuckler'
I57000
tp349
sS'shevek'
p350
(S'https://www.linkedin.com/in/shevek'
I77000
tp351
sS'lozandier'
p352
(S'https://www.linkedin.com/in/kevinlozandier'
I139000
tp353
sS'zetaj'
p354
(S'https://www.linkedin.com/in/jian-xing-li-6860b583'
I77000
tp355
sS'NoahSaso'
p356
(S'https://www.linkedin.com/in/noahsaso'
I134000
tp357
sS'abhiyerra'
p358
(S'https://www.linkedin.com/in/abhiyerra'
I94000
tp359
sS'khanukov'
p360
(S'https://www.linkedin.com/in/khanukov'
I89000
tp361
sS'quinnleong'
p362
(S'https://www.linkedin.com/in/quinnleong'
I41000
tp363
sS'apranav19'
p364
(S'https://www.linkedin.com/in/apranav19'
I117000
tp365
sS'toddsifleet'
p366
(S'https://www.linkedin.com/in/toddsifleet'
I127000
tp367
sS'mbleigh'
p368
(S'https://www.linkedin.com/in/mbleigh'
I178000
tp369
sS'silverjam'
p370
(S'https://www.linkedin.com/in/silverjam'
I95000
tp371
sS'oalders'
p372
(S'https://www.linkedin.com/in/olafalders'
I71000
tp373
sS'pyronicide'
p374
(S'https://www.linkedin.com/in/thomas-rampelberg-a7088'
I95000
tp375
sS'schleimer'
p376
(S'https://www.linkedin.com/in/ericaschleimer'
I118000
tp377
sS'loftywaif002'
p378
(S'https://www.linkedin.com/in/loftywaif002'
I77000
tp379
sS'dmlittle'
p380
(S'https://www.linkedin.com/in/dmlittle'
I77000
tp381
sS'davdkm'
p382
(S'https://www.linkedin.com/in/dvdkm'
I124000
tp383
sS'gcpantazis'
p384
(S'https://www.linkedin.com/in/gpantazis'
I102000
tp385
sS'sjolsen'
p386
(S'https://www.linkedin.com/in/sjolsen'
I106000
tp387
sS'senica'
p388
(S'https://www.linkedin.com/in/senica-gonzalez-5221b738'
I93000
tp389
sS'fredsharples'
p390
(S'https://www.linkedin.com/in/fredsharples'
I136000
tp391
sS'rlqualls'
p392
(S'https://www.linkedin.com/in/rlqualls'
I46000
tp393
sS'ntylerwarner'
p394
(S'https://www.linkedin.com/in/ntylerwarner'
I77000
tp395
sS'zurawiki'
p396
(S'https://www.linkedin.com/in/zurawiki'
I95000
tp397
sS'kbarbary'
p398
(S'https://www.linkedin.com/in/kyle-barbary-b918b580'
I122000
tp399
sS'sethkinast'
p400
(S'https://www.linkedin.com/in/sethkinast'
I95000
tp401
sS'satorusasozaki'
p402
(S'https://www.linkedin.com/in/satorusasozaki'
I68000
tp403
sS'skaslev'
p404
(S'https://www.linkedin.com/in/slavomirkaslev'
I71000
tp405
sS'georgethomas111'
p406
(S'https://www.linkedin.com/in/georgethomasst'
I79000
tp407
sS'naudo'
p408
(S'https://www.linkedin.com/in/nicholasaudo'
I139000
tp409
sS'wordofchristian'
p410
(S'https://www.linkedin.com/in/schlensker'
I146000
tp411
sS'addisonhuddy'
p412
(S'https://www.linkedin.com/in/addisonhuddy'
I139000
tp413
sS'Kandianne'
p414
(S'https://www.linkedin.com/in/kandianne'
I105000
tp415
sS'arsturges'
p416
(S'https://www.linkedin.com/in/apsturges'
I256000
tp417
sS'bobpoekert'
p418
(S'https://www.linkedin.com/in/bob-poekert-408a5a49'
I93000
tp419
sS'xalgorithm'
p420
(S'https://www.linkedin.com/in/vincent-flesouras-435a9318'
I157000
tp421
sS'tritiatimmins'
p422
(S'https://www.linkedin.com/in/tritiatimmins'
I95000
tp423
sS'liuhaotian'
p424
(S'https://www.linkedin.com/in/liuhaotian'
I127000
tp425
sS'daftshady'
p426
(S'https://www.linkedin.com/in/daftshady'
I60000
tp427
sS'abhinemani'
p428
(S'https://www.linkedin.com/in/abhinemani'
I58000
tp429
sS'ripta'
p430
(S'https://www.linkedin.com/in/riptapasay'
I112000
tp431
sS'pengkui'
p432
(S'https://www.linkedin.com/in/luopk'
I143000
tp433
sS'itszero'
p434
(S'https://www.linkedin.com/in/itszero'
I136000
tp435
sS'nickdirienzo'
p436
(S'https://www.linkedin.com/in/nickdirienzo'
I136000
tp437
sS'mookerji'
p438
(S'https://www.linkedin.com/in/mookerjib'
I136000
tp439
sS'arapat'
p440
(S'https://www.linkedin.com/in/jalafate'
I71000
tp441
sS'gabebw'
p442
(S'https://www.linkedin.com/in/gabebw'
I116000
tp443
sS'mcreinhard'
p444
(S'https://www.linkedin.com/in/mcreinhard'
I77000
tp445
sS'arturosevilla'
p446
(S'https://www.linkedin.com/in/arturosevilla'
I63000
tp447
sS'razfriman'
p448
(S'https://www.linkedin.com/in/razfriman'
I88000
tp449
sS'GraphicsEmpire'
p450
(S'https://www.linkedin.com/in/pouryashirazian'
I205000
tp451
sS'mhayes'
p452
(S'https://www.linkedin.com/in/mahayes'
I66000
tp453
sS'tropperstyle'
p454
(S'https://www.linkedin.com/in/jonathan-tropper-21392a78'
I129000
tp455
sS'KyleW'
p456
(S'https://www.linkedin.com/in/kylewarneck'
I136000
tp457
sS'reidmix'
p458
(S'https://www.linkedin.com/in/reidmix'
I119000
tp459
sS'pinheadmz'
p460
(S'https://www.linkedin.com/in/matthewzipkin'
I72000
tp461
sS'varatep'
p462
(S'https://www.linkedin.com/in/varatep'
I104000
tp463
sS'cbrauchli'
p464
(S'https://www.linkedin.com/in/cbrauchli'
I123000
tp465
sS'vykster'
p466
(S'https://www.linkedin.com/in/vykienglert'
I84000
tp467
sS'gerad'
p468
(S'https://www.linkedin.com/in/geradsuyderhoud'
I148000
tp469
sS'n3wtn9'
p470
(S'https://www.linkedin.com/in/newton-truong-54b00340'
I116000
tp471
sS'Cmarl'
p472
(S'https://www.linkedin.com/in/clydemarl'
I95000
tp473
sS'ekashida'
p474
(S'https://www.linkedin.com/in/ekashida'
I95000
tp475
sS'slonak79'
p476
(S'https://www.linkedin.com/in/alsorto'
I102000
tp477
sS'jmfurlott'
p478
(S'https://www.linkedin.com/in/joseph-furlott-79070062'
I128000
tp479
sS'akueisara'
p480
(S'https://www.linkedin.com/in/kueijunghu'
I136000
tp481
sS'j2kun'
p482
(S'https://www.linkedin.com/in/jeremykun'
I102000
tp483
sS'dahmian'
p484
(S'https://www.linkedin.com/in/dahmian'
I102000
tp485
sS'timhall1'
p486
(S'https://www.linkedin.com/in/timhall5'
I41000
tp487
sS'evanvreeland'
p488
(S'https://www.linkedin.com/in/evanvreeland'
I57000
tp489
sS'poojabansal'
p490
(S'https://www.linkedin.com/in/poojakbansal'
I47000
tp491
sS'rahulsom'
p492
(S'https://www.linkedin.com/in/rahulsom'
I126000
tp493
sS'hoxworth'
p494
(S'https://www.linkedin.com/in/kenneth-hoxworth-71461a46'
I158000
tp495
sS'supermarin'
p496
(S'https://www.linkedin.com/in/marinusalj'
I136000
tp497
sS'jjwon0'
p498
(S'https://www.linkedin.com/in/jjwon'
I98000
tp499
sS'jbobron'
p500
(S'https://www.linkedin.com/in/jacobobron'
I136000
tp501
sS'jpulec'
p502
(S'https://www.linkedin.com/in/james-pulec-59a8a03b'
I132000
tp503
sS'darinkrauss'
p504
(S'https://www.linkedin.com/in/darinkrauss'
I94000
tp505
sS'jcarapia'
p506
(S'https://www.linkedin.com/in/jcarapia'
I150000
tp507
sS'baweaver'
p508
(S'https://www.linkedin.com/in/brweaver'
I92000
tp509
sS'hleetwin'
p510
(S'https://www.linkedin.com/in/hannahalee'
I96000
tp511
sS'codahale'
p512
(S'https://www.linkedin.com/in/codahale'
I143000
tp513
sS'davideast'
p514
(S'https://www.linkedin.com/in/davideastvw'
I85000
tp515
sS'choxi'
p516
(S'https://www.linkedin.com/in/choxi'
I96000
tp517
sS'dmdeller'
p518
(S'https://www.linkedin.com/in/dmdeller'
I105000
tp519
sS'SherylHohman'
p520
(S'https://www.linkedin.com/in/sherylhohman'
I128000
tp521
sS'kangkyu'
p522
(S'https://www.linkedin.com/in/kangkyulee'
I104000
tp523
sS'kwerle'
p524
(S'https://www.linkedin.com/in/kwerle'
I80000
tp525
sS'hynding'
p526
(S'https://www.linkedin.com/in/stevehynding'
I110000
tp527
sS'fritzo'
p528
(S'https://www.linkedin.com/in/fritz-obermeyer-48a45b2'
I93000
tp529
sS'kylehilton92'
p530
(S'https://www.linkedin.com/in/kylehilton92'
I77000
tp531
sS'derek'
p532
(S'https://www.linkedin.com/in/derekgathright'
I96000
tp533
sS'redcap3000'
p534
(S'https://www.linkedin.com/in/ronaldob'
I71000
tp535
sS'cyrusstoller'
p536
(S'https://www.linkedin.com/in/cyrusstoller'
I64000
tp537
sS'rpalcolea'
p538
(S'https://www.linkedin.com/in/robertoperezalcolea'
I95000
tp539
sS'bryansattler'
p540
(S'https://www.linkedin.com/in/bryansattler'
I57000
tp541
sS'Zorigt'
p542
(S'https://www.linkedin.com/in/zorigt'
I97000
tp543
sS'utako'
p544
(S'https://www.linkedin.com/in/utako'
I171000
tp545
sS'ayzwah'
p546
(S'https://www.linkedin.com/in/ayzaan-wahid-21676148'
I140000
tp547
sS'vanjikumaran'
p548
(S'https://www.linkedin.com/in/vanjikumaran-sivajothy-293b3125'
I138000
tp549
sS'ChrisMcKenzie'
p550
(S'https://www.linkedin.com/in/chrismckenzie37'
I123000
tp551
sS'evitolins'
p552
(S'https://www.linkedin.com/in/eriks-vitolins-a754182'
I76000
tp553
sS'paloobi'
p554
(S'https://www.linkedin.com/in/paloobi'
I140000
tp555
sS'TravelingTechGuy'
p556
(S'https://www.linkedin.com/in/gvider'
I116000
tp557
sS'WilsonGiese'
p558
(S'https://www.linkedin.com/in/wilsongiese'
I96000
tp559
sS'will2357'
p560
(S'https://www.linkedin.com/in/willhighducheck'
I76000
tp561
sS'cgcardona'
p562
(S'https://www.linkedin.com/in/gcardonag'
I99000
tp563
sS'lyle'
p564
(S'https://www.linkedin.com/in/troxell'
I136000
tp565
sS'atoder'
p566
(S'https://www.linkedin.com/in/alexander-toder-b6139829'
I71000
tp567
sS'andrewmacheret'
p568
(S'https://www.linkedin.com/in/andrew-macheret-0b697557'
I135000
tp569
sS'davidstrauss'
p570
(S'https://www.linkedin.com/in/davidwstrauss'
I60000
tp571
sS'jbussdieker'
p572
(S'https://www.linkedin.com/in/jbussdieker'
I157000
tp573
sS'jacktrades'
p574
(S'https://www.linkedin.com/in/nickfrez'
I136000
tp575
sS'StephanieSpanjian'
p576
(S'https://www.linkedin.com/in/stephaniespanjiandotcom'
I76000
tp577
sS'mouse-reeve'
p578
(S'https://www.linkedin.com/in/mouse-reeve-a4748321'
I74000
tp579
sS'dorianpula'
p580
(S'https://www.linkedin.com/in/dorianpula'
I102000
tp581
sS'rjurney'
p582
(S'https://www.linkedin.com/in/russelljurney'
I78000
tp583
sS'chetan51'
p584
(S'https://www.linkedin.com/in/chetan51'
I77000
tp585
sS'iamrudra'
p586
(S'https://www.linkedin.com/in/viditmaniyar'
I145000
tp587
sS'cunnie'
p588
(S'https://www.linkedin.com/in/briancunnie'
I95000
tp589
sS'Borgaard'
p590
(S'https://www.linkedin.com/in/nicoleborgaard'
I115000
tp591
sS'laurenbenichou'
p592
(S'https://www.linkedin.com/in/laurenbenichou'
I160000
tp593
sS'daveschumaker'
p594
(S'https://www.linkedin.com/in/daveschumaker'
I153000
tp595
sS'joshfraser'
p596
(S'https://www.linkedin.com/in/joshuafraser'
I77000
tp597
sS'mattmagpayo'
p598
(S'https://www.linkedin.com/in/mattmagpayo'
I95000
tp599
sS'gorakhargosh'
p600
(S'https://www.linkedin.com/in/yesudeep'
I145000
tp601
sS'dougshamoo'
p602
(S'https://www.linkedin.com/in/dougshamoo'
I102000
tp603
sS'lewellyn'
p604
(S'https://www.linkedin.com/in/matt-lewandowsky-97b916aa'
I136000
tp605
sS'pearl1991'
p606
(S'https://www.linkedin.com/in/pearlmcphee'
I142000
tp607
sS'Cfeusier'
p608
(S'https://www.linkedin.com/in/clarkfeusier'
I110000
tp609
sS'stonly'
p610
(S'https://www.linkedin.com/in/stonly'
I95000
tp611
sS'sunseth'
p612
(S'https://www.linkedin.com/in/sunseth'
I57000
tp613
sS'eveporcello'
p614
(S'https://www.linkedin.com/in/eveporcello'
I42000
tp615
sS'tedski'
p616
(S'https://www.linkedin.com/in/tedski'
I96000
tp617
sS'aldb'
p618
(S'https://www.linkedin.com/in/aldb-f-a6452972'
I100000
tp619
sS'rringler'
p620
(S'https://www.linkedin.com/in/rringler'
I88000
tp621
sS'yanfali'
p622
(S'https://www.linkedin.com/in/yan-fa-li-b204aa1'
I95000
tp623
sS'prashishh'
p624
(S'https://www.linkedin.com/in/prashishh'
I145000
tp625
sS'hcatlin'
p626
(S'https://www.linkedin.com/in/hamptoncatlin'
I95000
tp627
sS'kevinmehall'
p628
(S'https://www.linkedin.com/in/kevin-mehall-42276243'
I160000
tp629
sS'katekligman'
p630
(S'https://www.linkedin.com/in/katekligman'
I96000
tp631
sS'borisfom'
p632
(S'https://www.linkedin.com/in/borisfomitchev'
I127000
tp633
sS'dennybritz'
p634
(S'https://www.linkedin.com/in/dennybritz'
I47000
tp635
sS'zorbathut'
p636
(S'https://www.linkedin.com/in/benrogwilhelm'
I136000
tp637
sS'hilalh'
p638
(S'https://www.linkedin.com/in/hilalh'
I81000
tp639
sS'shahshaan'
p640
(S'https://www.linkedin.com/in/shahshaan'
I86000
tp641
sS'JeffBelgum'
p642
(S'https://www.linkedin.com/in/jeffbelgum'
I178000
tp643
sS'osmdawy'
p644
(S'https://www.linkedin.com/in/osmdawy'
I95000
tp645
sS'bwainstock'
p646
(S'https://www.linkedin.com/in/barrywainstock'
I125000
tp647
sS'sarmadbokhari'
p648
(S'https://www.linkedin.com/in/sarmadbokhari'
I136000
tp649
sS'franziskagoltz'
p650
(S'https://www.linkedin.com/in/franziska-von-der-goltz'
I96000
tp651
sS'mbarrien'
p652
(S'https://www.linkedin.com/in/mbarrien'
I77000
tp653
sS'danreedy'
p654
(S'https://www.linkedin.com/in/danreedy'
I57000
tp655
sS'lisavogtsf'
p656
(S'https://www.linkedin.com/in/lisavogtsf'
I74000
tp657
sS'tylerprete'
p658
(S'https://www.linkedin.com/in/tylerprete'
I57000
tp659
sS'ntustison'
p660
(S'https://www.linkedin.com/in/nick-tustison-aa30386'
I46000
tp661
sS'anconaesselmann'
p662
(S'https://www.linkedin.com/in/axel-ancona-esselmann-12a1a092'
I128000
tp663
sS'micahbf'
p664
(S'https://www.linkedin.com/in/micahbf'
I132000
tp665
sS'aronysidoro'
p666
(S'https://www.linkedin.com/in/aaron-lelevier-b6a238b7'
I132000
tp667
sS'JustinDSN'
p668
(S'https://www.linkedin.com/in/justindsn'
I57000
tp669
sS'vkostyukov'
p670
(S'https://www.linkedin.com/in/vkostyukov'
I102000
tp671
sS'azymnis'
p672
(S'https://www.linkedin.com/in/azymnis'
I136000
tp673
sS'cse25'
p674
(S'https://www.linkedin.com/in/cse25'
I76000
tp675
sS'jwbowler'
p676
(S'https://www.linkedin.com/in/jwbowler'
I116000
tp677
sS'kerrickstaley'
p678
(S'https://www.linkedin.com/in/kerrick-staley'
I126000
tp679
sS'reduxdj'
p680
(S'https://www.linkedin.com/in/patrickdj'
I150000
tp681
sS'carlcrott'
p682
(S'https://www.linkedin.com/in/carlcrott'
I126000
tp683
sS'rweald'
p684
(S'https://www.linkedin.com/in/ryanweald'
I130000
tp685
sS'twolfe2'
p686
(S'https://www.linkedin.com/in/twolfe2'
I77000
tp687
sS'faisalmansoor'
p688
(S'https://www.linkedin.com/in/faisalmansoor'
I78000
tp689
sS'MohammadAdib'
p690
(S'https://www.linkedin.com/in/mohammadadib'
I62000
tp691
sS'brittkistner'
p692
(S'https://www.linkedin.com/in/brittneykistner'
I67000
tp693
sS'aswani521'
p694
(S'https://www.linkedin.com/in/aswaninerella'
I136000
tp695
sS'hondo094'
p696
(S'https://www.linkedin.com/in/patreck-raymore-721123a5'
I66000
tp697
sS'TannerBaldus'
p698
(S'https://www.linkedin.com/in/tannerbaldus'
I96000
tp699
sS'Fedor-Tsyganov'
p700
(S'https://www.linkedin.com/in/fedortsyganov'
I96000
tp701
sS'amikula'
p702
(S'https://www.linkedin.com/in/alfmikula'
I136000
tp703
sS'say2joe'
p704
(S'https://www.linkedin.com/in/say2joe'
I62000
tp705
sS'darrenboyd'
p706
(S'https://www.linkedin.com/in/darrenboyd'
I77000
tp707
sS'charlesmadere'
p708
(S'https://www.linkedin.com/in/charlesmadere'
I57000
tp709
sS'johnwun'
p710
(S'https://www.linkedin.com/in/johnwun'
I145000
tp711
sS'ericflo'
p712
(S'https://www.linkedin.com/in/ericflorenzano'
I95000
tp713
sS'mattlong'
p714
(S'https://www.linkedin.com/in/mattluongo'
I211000
tp715
sS'HaloZero'
p716
(S'https://www.linkedin.com/in/rohan-dhaimade-32283a68'
I139000
tp717
sS'davidneudorfer'
p718
(S'https://www.linkedin.com/in/davidneudorfer'
I62000
tp719
sS'ayust'
p720
(S'https://www.linkedin.com/in/amberyust'
I164000
tp721
sS'jbasalone'
p722
(S'https://www.linkedin.com/in/jbasalone'
I106000
tp723
sS'OlivierLD'
p724
(S'https://www.linkedin.com/in/olivier-lediouris-71680'
I95000
tp725
sS'contactkeala'
p726
(S'https://www.linkedin.com/in/contactkeala'
I134000
tp727
sS'pxtang'
p728
(S'https://www.linkedin.com/in/pxtang'
I82000
tp729
sS'kakorcal'
p730
(S'https://www.linkedin.com/in/kennethkorcal'
I69000
tp731
sS'luhagel'
p732
(S'https://www.linkedin.com/in/luhagel'
I96000
tp733
sS'jbaudanza'
p734
(S'https://www.linkedin.com/in/jonathan-baudanza-3695141'
I95000
tp735
sS'benalavi'
p736
(S'https://www.linkedin.com/in/benalavi'
I62000
tp737
sS'secobarbital'
p738
(S'https://www.linkedin.com/in/seggy'
I126000
tp739
sS'jasonbot'
p740
(S'https://www.linkedin.com/in/jasonscheirer'
I95000
tp741
sS'dav-'
p742
(S'https://www.linkedin.com/in/derrickcohodas'
I109000
tp743
sS'dtx'
p744
(S'https://www.linkedin.com/in/darshan104'
I143000
tp745
sS'mturquette'
p746
(S'https://www.linkedin.com/in/mturquette'
I110000
tp747
sS'lamielle'
p748
(S'https://www.linkedin.com/in/alanlamielle'
I113000
tp749
sS'zpencerq'
p750
(S'https://www.linkedin.com/in/sellinor'
I139000
tp751
sS'kirsle'
p752
(S'https://www.linkedin.com/in/kirsle'
I116000
tp753
sS'veena-sridhar'
p754
(S'https://www.linkedin.com/in/veenasridhar'
I102000
tp755
sS'stefanzier'
p756
(S'https://www.linkedin.com/in/stefanzier'
I143000
tp757
sS'czarnega'
p758
(S'https://www.linkedin.com/in/colinzarnegar'
I97000
tp759
sS'bowsersenior'
p760
(S'https://www.linkedin.com/in/bowsersenior'
I178000
tp761
sS'noahcampbell'
p762
(S'https://www.linkedin.com/in/noahcampbell'
I174000
tp763
sS'emerose'
p764
(S'https://www.linkedin.com/in/emerose'
I88000
tp765
sS'xaviablaza'
p766
(S'https://www.linkedin.com/in/xaviablaza'
I73000
tp767
sS'irtefa'
p768
(S'https://www.linkedin.com/in/irtefa'
I87000
tp769
sS'Spenser309'
p770
(S'https://www.linkedin.com/in/spensergilliland'
I136000
tp771
sS'Gabri3l'
p772
(S'https://www.linkedin.com/in/gabrielecimato'
I102000
tp773
sS'maymillerricci'
p774
(S'https://www.linkedin.com/in/maymillerricci'
I85000
tp775
sS'hulbert'
p776
(S'https://www.linkedin.com/in/shulbert'
I106000
tp777
sS'belovachap'
p778
(S'https://www.linkedin.com/in/chapmanshoop'
I136000
tp779
sS'szangaro'
p780
(S'https://www.linkedin.com/in/szangaro'
I71000
tp781
sS'lorden'
p782
(S'https://www.linkedin.com/in/diegolorden'
I80000
tp783
sS'gnr'
p784
(S'https://www.linkedin.com/in/vanrenen'
I128000
tp785
sS'dustin520'
p786
(S'https://www.linkedin.com/in/dustin520'
I57000
tp787
sS'johansson'
p788
(S'https://www.linkedin.com/in/wjohansson'
I42000
tp789
sS'pdo9141'
p790
(S'https://www.linkedin.com/in/mason-do-87a53b2'
I95000
tp791
sS'xiaoyifan'
p792
(S'https://www.linkedin.com/in/xiaoyifan'
I95000
tp793
sS'micheas'
p794
(S'https://www.linkedin.com/in/micheas'
I164000
tp795
sS'pauljz'
p796
(S'https://www.linkedin.com/in/paulzumbrun'
I150000
tp797
sS'kasima'
p798
(S'https://www.linkedin.com/in/kasimat'
I136000
tp799
sS'kigster'
p800
(S'https://www.linkedin.com/in/kigster'
I143000
tp801
sS'jhaynie'
p802
(S'https://www.linkedin.com/in/jhaynie'
I77000
tp803
sS'uiho'
p804
(S'https://www.linkedin.com/in/uihochoi'
I46000
tp805
sS'nlacasse'
p806
(S'https://www.linkedin.com/in/nlacasse'
I142000
tp807
sS'aplocher'
p808
(S'https://www.linkedin.com/in/aplocher'
I270000
tp809
sS'syadlowsky'
p810
(S'https://www.linkedin.com/in/syadlowsky'
I95000
tp811
sS'chasebolt'
p812
(S'https://www.linkedin.com/in/chase-bolt-13322451'
I106000
tp813
sS'offirgolan'
p814
(S'https://www.linkedin.com/in/offirgolan'
I95000
tp815
sS'aia'
p816
(S'https://www.linkedin.com/in/veremey'
I136000
tp817
sS'kentonv'
p818
(S'https://www.linkedin.com/in/kenton-varda-5b96a2a4'
I138000
tp819
sS'nkouevda'
p820
(S'https://www.linkedin.com/in/nkouevda'
I144000
tp821
sS'SethMilliken'
p822
(S'https://www.linkedin.com/in/sethmilliken'
I77000
tp823
sS'robustdj'
p824
(S'https://www.linkedin.com/in/derrickcamerino'
I205000
tp825
sS'briannanoland'
p826
(S'https://www.linkedin.com/in/briannanoland'
I99000
tp827
sS'nligon'
p828
(S'https://www.linkedin.com/in/nligon'
I126000
tp829
sS'hanschun'
p830
(S'https://www.linkedin.com/in/hans-werner-chun-b16b6594'
I74000
tp831
sS'ljharb'
p832
(S'https://www.linkedin.com/in/ljharb'
I157000
tp833
sS'cradbold'
p834
(S'https://www.linkedin.com/in/warmbold'
I145000
tp835
sS'aleclarson'
p836
(S'https://www.linkedin.com/in/alec-larson'
I57000
tp837
sS'pganti'
p838
(S'https://www.linkedin.com/in/pganti'
I119000
tp839
sS'nicksnyder'
p840
(S'https://www.linkedin.com/in/nickdsnyder'
I123000
tp841
sS'pennyfx'
p842
(S'https://www.linkedin.com/in/arronschaar'
I95000
tp843
sS'sanchisojeda'
p844
(S'https://www.linkedin.com/in/sanchisojeda'
I106000
tp845
sS'dawsonbotsford'
p846
(S'https://www.linkedin.com/in/dawsonbotsford'
I139000
tp847
sS'Apelsin'
p848
(S'https://www.linkedin.com/in/vincebg'
I96000
tp849
sS'ttdonovan'
p850
(S'https://www.linkedin.com/in/ttdonovan'
I148000
tp851
sS'jolting'
p852
(S'https://www.linkedin.com/in/hunter-laux-20a2bb23'
I50000
tp853
sS'ameyanaik11'
p854
(S'https://www.linkedin.com/in/ameyanaik11'
I102000
tp855
sS'surajpindoria'
p856
(S'https://www.linkedin.com/in/surajpindoria'
I130000
tp857
sS'mihirjham'
p858
(S'https://www.linkedin.com/in/mihir-jham-b0350a3b'
I215000
tp859
sS'matthewvilhauer'
p860
(S'https://www.linkedin.com/in/matthewvilhauer'
I34000
tp861
sS'cespare'
p862
(S'https://www.linkedin.com/in/caleb-spare-149b074'
I126000
tp863
sS'briandang714'
p864
(S'https://www.linkedin.com/in/briandang714'
I102000
tp865
sS'theresa-clare'
p866
(S'https://www.linkedin.com/in/theresacay'
I134000
tp867
sS'Firehed'
p868
(S'https://www.linkedin.com/in/firehed'
I88000
tp869
sS'springmeyer'
p870
(S'https://www.linkedin.com/in/springmeyer'
I125000
tp871
sS'benasher44'
p872
(S'https://www.linkedin.com/in/benasher44'
I110000
tp873
sS'teeeg'
p874
(S'https://www.linkedin.com/in/thomasklonecke'
I126000
tp875
sS'tosswill'
p876
(S'https://www.linkedin.com/in/tosswill'
I139000
tp877
sS'gotascii'
p878
(S'https://www.linkedin.com/in/gotascii'
I111000
tp879
sS'bisrael'
p880
(S'https://www.linkedin.com/in/blakeisrael'
I110000
tp881
sS'BasSondag'
p882
(S'https://www.linkedin.com/in/bas-sondag'
I77000
tp883
sS'diophung'
p884
(S'https://www.linkedin.com/in/diophung'
I126000
tp885
sS'jessedhillon'
p886
(S'https://www.linkedin.com/in/jessedhillon'
I57000
tp887
sS'chrisdanford'
p888
(S'https://www.linkedin.com/in/chrisdanford'
I171000
tp889
sS'nfraenkel'
p890
(S'https://www.linkedin.com/in/nfraenkel'
I102000
tp891
sS'dkoudlo'
p892
(S'https://www.linkedin.com/in/danilkoudlo'
I146000
tp893
sS'kellyhiggins'
p894
(S'https://www.linkedin.com/in/kellyhiggins1'
I57000
tp895
sS'mschmulen'
p896
(S'https://www.linkedin.com/in/schmulen'
I71000
tp897
sS'zkat'
p898
(S'https://www.linkedin.com/in/katmarchan'
I171000
tp899
sS'choochootrain'
p900
(S'https://www.linkedin.com/in/hurshal-patel-7800ab32'
I116000
tp901
sS'alxrsngrtn'
p902
(S'https://www.linkedin.com/in/alexrosengarten'
I102000
tp903
sS'flysonic10'
p904
(S'https://www.linkedin.com/in/williamwnekowicz'
I92000
tp905
sS'jonalter'
p906
(S'https://www.linkedin.com/in/jonalter'
I136000
tp907
sS'JaredRoth'
p908
(S'https://www.linkedin.com/in/jaredsroth'
I57000
tp909
sS'fredemmott'
p910
(S'https://www.linkedin.com/in/fredemmott'
I136000
tp911
sS'BenLiyanage'
p912
(S'https://www.linkedin.com/in/benliyanage'
I128000
tp913
sS'yez'
p914
(S'https://www.linkedin.com/in/jakeyesbeck'
I92000
tp915
sS'electrum'
p916
(S'https://www.linkedin.com/in/electrum'
I136000
tp917
sS'nikogura'
p918
(S'https://www.linkedin.com/in/nik-ogura-44373492'
I154000
tp919
sS'mlerner'
p920
(S'https://www.linkedin.com/in/micah-lerner-b277323'
I191000
tp921
sS'gamell'
p922
(S'https://www.linkedin.com/in/gamell'
I22000
tp923
sS'ronaknnathani'
p924
(S'https://www.linkedin.com/in/ronaknnathani'
I130000
tp925
sS'xavdid'
p926
(S'https://www.linkedin.com/in/xavdid'
I149000
tp927
sS'poojawins'
p928
(S'https://www.linkedin.com/in/poojawins'
I139000
tp929
sS'michaellin'
p930
(S'https://www.linkedin.com/in/michaellinyang'
I93000
tp931
sS'mackenziehicks'
p932
(S'https://www.linkedin.com/in/mackenziehicks'
I57000
tp933
sS'bfoz'
p934
(S'https://www.linkedin.com/in/bfosdick'
I136000
tp935
sS'aniketzamwar'
p936
(S'https://www.linkedin.com/in/aniketzamwar'
I145000
tp937
sS'sdether'
p938
(S'https://www.linkedin.com/in/sdether'
I106000
tp939
sS'mb-dev'
p940
(S'https://www.linkedin.com/in/moshebergman'
I139000
tp941
sS'rdegnan'
p942
(S'https://www.linkedin.com/in/rjdegnan'
I164000
tp943
sS'wallerdev'
p944
(S'https://www.linkedin.com/in/wallerdev'
I98000
tp945
sS'rickypai'
p946
(S'https://www.linkedin.com/in/rickypai'
I133000
tp947
sS'antoniobg'
p948
(S'https://www.linkedin.com/in/antoniobg87'
I126000
tp949
sS'KalebClark'
p950
(S'https://www.linkedin.com/in/mkalebclark'
I57000
tp951
sS'anupcshan'
p952
(S'https://www.linkedin.com/in/anup-chenthamarakshan-87583014'
I120000
tp953
sS'coderkat'
p954
(S'https://www.linkedin.com/in/coderkat'
I151000
tp955
sS'mixophrygian'
p956
(S'https://www.linkedin.com/in/eleanor-weigert-a1b39229'
I99000
tp957
sS'jwang93'
p958
(S'https://www.linkedin.com/in/jaywang93'
I171000
tp959
sS'jonathan-potter'
p960
(S'https://www.linkedin.com/in/jonathanmpotter'
I136000
tp961
sS'vintrepid'
p962
(S'https://www.linkedin.com/in/vince-nibler-3ab743'
I70000
tp963
sS'sefk'
p964
(S'https://www.linkedin.com/in/sefkloninger'
I136000
tp965
sS'hnduong'
p966
(S'https://www.linkedin.com/in/hai-duong-ngoc-083a5538'
I108000
tp967
sS'brendanbohn'
p968
(S'https://www.linkedin.com/in/brendanbohn'
I141000
tp969
sS'tonyghita'
p970
(S'https://www.linkedin.com/in/tonyghita'
I130000
tp971
sS'kassens'
p972
(S'https://www.linkedin.com/in/jan-kassens-7a996535'
I139000
tp973
sS'knowshan'
p974
(S'https://www.linkedin.com/in/pavgi'
I101000
tp975
sS'malmckay'
p976
(S'https://www.linkedin.com/in/malmckay'
I164000
tp977
sS'briankennedy1'
p978
(S'https://www.linkedin.com/in/briantkennedy'
I80000
tp979
sS'paninapress'
p980
(S'https://www.linkedin.com/in/ninapacifico'
I27000
tp981
sS'adamstegman'
p982
(S'https://www.linkedin.com/in/adamstegman'
I116000
tp983
sS'lucasqiu'
p984
(S'https://www.linkedin.com/in/lucasqiu'
I77000
tp985
sS'ccorcos'
p986
(S'https://www.linkedin.com/in/chet-corcos-60b81131'
I129000
tp987
sS'prschulz'
p988
(S'https://www.linkedin.com/in/prschulz'
I93000
tp989
sS'ecdemis123'
p990
(S'https://www.linkedin.com/in/eleanordemis'
I110000
tp991
sS'alexlafroscia'
p992
(S'https://www.linkedin.com/in/alex-lafroscia-77a33143'
I88000
tp993
sS'kuanyingchou'
p994
(S'https://www.linkedin.com/in/kuanying'
I107000
tp995
sS'Aniroel'
p996
(S'https://www.linkedin.com/in/lbaybay'
I128000
tp997
sS'cartershanklin'
p998
(S'https://www.linkedin.com/in/cartershanklin'
I77000
tp999
sS'sotownsend'
p1000
(S'https://www.linkedin.com/in/seotownsend'
I95000
tp1001
sS'callmeed'
p1002
(S'https://www.linkedin.com/in/erik-dungan-7a03046b'
I71000
tp1003
sS'rustyrazorblade'
p1004
(S'https://www.linkedin.com/in/rustyrazorblade'
I62000
tp1005
sS'mshafrir'
p1006
(S'https://www.linkedin.com/in/mshafrir'
I102000
tp1007
sS'scanon'
p1008
(S'https://www.linkedin.com/in/shanecanon'
I103000
tp1009
sS'chrisdembia'
p1010
(S'https://www.linkedin.com/in/christopher-dembia-70180717'
I56000
tp1011
sS'jayunani'
p1012
(S'https://www.linkedin.com/in/jayunani'
I97000
tp1013
sS'scottstanfield'
p1014
(S'https://www.linkedin.com/in/scottgmansfield'
I102000
tp1015
sS'abhinavdangeti'
p1016
(S'https://www.linkedin.com/in/abhinav-dangeti-05391122'
I139000
tp1017
sS'laughnan'
p1018
(S'https://www.linkedin.com/in/alexlaughnan'
I140000
tp1019
sS'leptone'
p1020
(S'https://www.linkedin.com/in/casey-siebel'
I243000
tp1021
sS'Nazanin1369'
p1022
(S'https://www.linkedin.com/in/nazanindelam'
I80000
tp1023
sS'rstellar'
p1024
(S'https://www.linkedin.com/in/rstellar'
I128000
tp1025
sS'piperchester'
p1026
(S'https://www.linkedin.com/in/piperchester'
I145000
tp1027
sS'benjaminhoffman'
p1028
(S'https://www.linkedin.com/in/benjaminlhoffman'
I69000
tp1029
sS'nivedhithaVenkatachalam'
p1030
(S'https://www.linkedin.com/in/nivedhithavenkatachalam'
I73000
tp1031
sS'aarontam'
p1032
(S'https://www.linkedin.com/in/aarontam'
I77000
tp1033
sS'AlahmadiQ8'
p1034
(S'https://www.linkedin.com/in/asadmohammad'
I74000
tp1035
sS'generhim'
p1036
(S'https://www.linkedin.com/in/generhim'
I57000
tp1037
sS'taylorharwin'
p1038
(S'https://www.linkedin.com/in/taylorharwin'
I87000
tp1039
sS'mariozig'
p1040
(S'https://www.linkedin.com/in/zigliotto'
I136000
tp1041
sS'gterrono'
p1042
(S'https://www.linkedin.com/in/terrono'
I142000
tp1043
sS'palmer-dabbelt'
p1044
(S'https://www.linkedin.com/in/palmerdabbelt'
I67000
tp1045
sS'theganyo'
p1046
(S'https://www.linkedin.com/in/theganyo'
I113000
tp1047
sS'lacker'
p1048
(S'https://www.linkedin.com/in/kevinlacker'
I119000
tp1049
sS'blithe'
p1050
(S'https://www.linkedin.com/in/blitherocher'
I126000
tp1051
sS'mnickey'
p1052
(S'https://www.linkedin.com/in/mnickey'
I77000
tp1053
sS'ashirwad08'
p1054
(S'https://www.linkedin.com/in/ashirwadchakraborty'
I106000
tp1055
sS'amir20'
p1056
(S'https://www.linkedin.com/in/amir-raminfar-e-i-t-3971124a'
I71000
tp1057
sS'ksheedlo'
p1058
(S'https://www.linkedin.com/in/ken-sheedlo-06326626'
I139000
tp1059
sS'spenserhale'
p1060
(S'https://www.linkedin.com/in/spenserhale'
I95000
tp1061
sS'evgimov'
p1062
(S'https://www.linkedin.com/in/evghenii-ghimazitdinov-71b485123'
I74000
tp1063
sS'ldong'
p1064
(S'https://www.linkedin.com/in/ldong1'
I136000
tp1065
sS'scotmatson'
p1066
(S'https://www.linkedin.com/in/scotm'
I117000
tp1067
sS'SFoskitt'
p1068
(S'https://www.linkedin.com/in/foskittstephanie'
I102000
tp1069
sS'aiba'
p1070
(S'https://www.linkedin.com/in/aaroniba'
I80000
tp1071
sS'piclez'
p1072
(S'https://www.linkedin.com/in/peterdirickson'
I71000
tp1073
sS'stcalica'
p1074
(S'https://www.linkedin.com/in/stcalica'
I102000
tp1075
sS'hammerdr'
p1076
(S'https://www.linkedin.com/in/hammerdr'
I115000
tp1077
sS'nataren'
p1078
(S'https://www.linkedin.com/in/nataren'
I103000
tp1079
sS'davidamidon'
p1080
(S'https://www.linkedin.com/in/davidamidon'
I57000
tp1081
sS'pskim'
p1082
(S'https://www.linkedin.com/in/pskim1'
I77000
tp1083
sS'vinibaggio'
p1084
(S'https://www.linkedin.com/in/vinibaggio'
I126000
tp1085
sS'slimeate'
p1086
(S'https://www.linkedin.com/in/jack-labarba-276a958b'
I114000
tp1087
sS'renfredxh'
p1088
(S'https://www.linkedin.com/in/renfredxh'
I126000
tp1089
sS'naoyamakino'
p1090
(S'https://www.linkedin.com/in/naoyamakino'
I139000
tp1091
sS'AndrewGuenther'
p1092
(S'https://www.linkedin.com/in/andrewguenther'
I105000
tp1093
sS'rthota50'
p1094
(S'https://www.linkedin.com/in/rajiv-thota-5149a48a'
I127000
tp1095
sS'sammerry'
p1096
(S'https://www.linkedin.com/in/sammerry'
I57000
tp1097
sS'gtdeng'
p1098
(S'https://www.linkedin.com/in/gtdeng'
I95000
tp1099
sS'kvey'
p1100
(S'https://www.linkedin.com/in/colton-pierson-00aab248'
I151000
tp1101
sS'monisun'
p1102
(S'https://www.linkedin.com/in/monicasun'
I77000
tp1103
sS'eveliotc'
p1104
(S'https://www.linkedin.com/in/eveliotc'
I139000
tp1105
sS'rosieesirimitr'
p1106
(S'https://www.linkedin.com/in/rosiee-sirimitr-68244956'
I93000
tp1107
sS'a2lin'
p1108
(S'https://www.linkedin.com/in/a2lin'
I83000
tp1109
sS'edwinlin1987'
p1110
(S'https://www.linkedin.com/in/edwinlin1987'
I96000
tp1111
sS'Dottenpixel'
p1112
(S'https://www.linkedin.com/in/dougmolidor'
I96000
tp1113
sS'bcwaldon'
p1114
(S'https://www.linkedin.com/in/bcwaldon'
I138000
tp1115
sS'bensomers'
p1116
(S'https://www.linkedin.com/in/bensomers'
I70000
tp1117
sS'mmlindeboom'
p1118
(S'https://www.linkedin.com/in/mattlindeboom'
I126000
tp1119
sS'heardrwt'
p1120
(S'https://www.linkedin.com/in/heardrwt'
I136000
tp1121
sS'daywednes'
p1122
(S'https://www.linkedin.com/in/daywednes'
I142000
tp1123
sS'stvauyeung'
p1124
(S'https://www.linkedin.com/in/stvauyeung'
I57000
tp1125
sS'epps'
p1126
(S'https://www.linkedin.com/in/erikeppel'
I110000
tp1127
sS'zfjagann'
p1128
(S'https://www.linkedin.com/in/zealjagannatha'
I122000
tp1129
sS'yxiong'
p1130
(S'https://www.linkedin.com/in/ylxiong'
I113000
tp1131
sS'rickyeh'
p1132
(S'https://www.linkedin.com/in/rickyeh'
I82000
tp1133
sS'ngokevin'
p1134
(S'https://www.linkedin.com/in/ngovkevin'
I52000
tp1135
sS'jfsiii'
p1136
(S'https://www.linkedin.com/in/jfsiii'
I150000
tp1137
sS'ademars94'
p1138
(S'https://www.linkedin.com/in/ademars94'
I57000
tp1139
sS'jackfern'
p1140
(S'https://www.linkedin.com/in/jackfernbacher'
I35000
tp1141
sS'audreywatters'
p1142
(S'https://www.linkedin.com/in/audrey-michaud-watters-151a047a'
I75000
tp1143
sS'krohling'
p1144
(S'https://www.linkedin.com/in/krohling'
I57000
tp1145
sS'furf'
p1146
(S'https://www.linkedin.com/in/whatthefurf'
I153000
tp1147
sS'julianpoy'
p1148
(S'https://www.linkedin.com/in/julian-poyourow-98438258'
I43000
tp1149
sS'torsday'
p1150
(S'https://www.linkedin.com/in/torsday'
I128000
tp1151
sS'jdivock'
p1152
(S'https://www.linkedin.com/in/jason-divock-07b1974'
I132000
tp1153
sS'amilajack'
p1154
(S'https://www.linkedin.com/in/amila-welihinda-73415898'
I143000
tp1155
sS'lardawge'
p1156
(S'https://www.linkedin.com/in/larry-sprock-81725856'
I76000
tp1157
sS'diversario'
p1158
(S'https://www.linkedin.com/in/shaisultanov'
I128000
tp1159
sS'caseysackett'
p1160
(S'https://www.linkedin.com/in/caseysackett'
I77000
tp1161
sS'mpdaugherty'
p1162
(S'https://www.linkedin.com/in/mdaugherty1'
I102000
tp1163
sS'JakeHartnell'
p1164
(S'https://www.linkedin.com/in/jake-hartnell-b82631123'
I74000
tp1165
sS'aluzzardi'
p1166
(S'https://www.linkedin.com/in/aluzzardi'
I136000
tp1167
sS'hinathan'
p1168
(S'https://www.linkedin.com/in/hinathan'
I102000
tp1169
sS'adamgibbons'
p1170
(S'https://www.linkedin.com/in/adamcgibbons'
I191000
tp1171
sS'dnahol'
p1172
(S'https://www.linkedin.com/in/dnahol'
I77000
tp1173
sS'cmelbye'
p1174
(S'https://www.linkedin.com/in/charlesmelbye'
I159000
tp1175
sS'sqs'
p1176
(S'https://www.linkedin.com/in/quinnslack'
I87000
tp1177
sS'sambernard'
p1178
(S'https://www.linkedin.com/in/sambernard'
I57000
tp1179
sS'yegor256'
p1180
(S'https://www.linkedin.com/in/yegor256'
I141000
tp1181
sS'sabbyanandan'
p1182
(S'https://www.linkedin.com/in/sabbyanandan'
I121000
tp1183
sS'chstan'
p1184
(S'https://www.linkedin.com/in/conrad-stansbury-679392b6'
I95000
tp1185
sS'sfalkoff'
p1186
(S'https://www.linkedin.com/in/sarafalkoff'
I71000
tp1187
sS'kuychaco'
p1188
(S'https://www.linkedin.com/in/katrinauychaco'
I140000
tp1189
sS'edwardvalentini'
p1190
(S'https://www.linkedin.com/in/edwardvalentini'
I77000
tp1191
sS'zekeslotsky'
p1192
(S'https://www.linkedin.com/in/zekeslotsky'
I126000
tp1193
sS'iGitScor'
p1194
(S'https://www.linkedin.com/in/sebastiencorreaud'
I97000
tp1195
sS'tristansokol'
p1196
(S'https://www.linkedin.com/in/tristansokol'
I150000
tp1197
sS'tigershen23'
p1198
(S'https://www.linkedin.com/in/tigershen'
I71000
tp1199
sS'Kellel'
p1200
(S'https://www.linkedin.com/in/kellen-fox-a2441688'
I39000
tp1201
sS'azanebrain'
p1202
(S'https://www.linkedin.com/in/azanebrain'
I95000
tp1203
sS'josephgrossberg'
p1204
(S'https://www.linkedin.com/in/joegrossberg'
I57000
tp1205
sS'tomelm'
p1206
(S'https://www.linkedin.com/in/tomer-elmalem-a7125559'
I144000
tp1207
sS'charlex'
p1208
(S'https://www.linkedin.com/in/honestcharley'
I115000
tp1209
sS'jerhinesmith'
p1210
(S'https://www.linkedin.com/in/jerhinesmith'
I136000
tp1211
sS'cadyherron'
p1212
(S'https://www.linkedin.com/in/julia-flanagan-a3b1bb25'
I126000
tp1213
sS'kovrov'
p1214
(S'https://www.linkedin.com/in/sergk'
I71000
tp1215
sS'smallhaxe'
p1216
(S'https://www.linkedin.com/in/ugobelu'
I95000
tp1217
sS'cnaut'
p1218
(S'https://www.linkedin.com/in/charlesnaut'
I136000
tp1219
sS'tekknolagi'
p1220
(S'https://www.linkedin.com/in/tekknolagi'
I77000
tp1221
sS'nalipaz'
p1222
(S'https://www.linkedin.com/in/nicholasalipaz'
I110000
tp1223
sS'thoov'
p1224
(S'https://www.linkedin.com/in/thoov'
I181000
tp1225
sS'lockoff'
p1226
(S'https://www.linkedin.com/in/kiyan-ahmadizadeh-99978a44'
I139000
tp1227
sS'zpriddy'
p1228
(S'https://www.linkedin.com/in/zpriddy'
I112000
tp1229
sS'aguynamedben'
p1230
(S'https://www.linkedin.com/in/aguynamedben'
I98000
tp1231
sS'Siggs2000'
p1232
(S'https://www.linkedin.com/in/sethsiegler'
I108000
tp1233
sS'Kranjbar'
p1234
(S'https://www.linkedin.com/in/kayvonranjbar'
I92000
tp1235
sS'hilaryparker'
p1236
(S'https://www.linkedin.com/in/hilaryparker'
I50000
tp1237
sS'thommahoney'
p1238
(S'https://www.linkedin.com/in/thommahoney'
I128000
tp1239
sS'FCSerpa'
p1240
(S'https://www.linkedin.com/in/fcserpa'
I125000
tp1241
sS'mpurland'
p1242
(S'https://www.linkedin.com/in/mpurland'
I77000
tp1243
sS'libin'
p1244
(S'https://www.linkedin.com/in/libin'
I92000
tp1245
sS'josephbaena'
p1246
(S'https://www.linkedin.com/in/josephbaena'
I136000
tp1247
sS'gmccreight'
p1248
(S'https://www.linkedin.com/in/gmccreight'
I100000
tp1249
sS'cacoco'
p1250
(S'https://www.linkedin.com/in/ccoco'
I129000
tp1251
sS'cboots'
p1252
(S'https://www.linkedin.com/in/collin-boots-b8924621'
I80000
tp1253
sS'skyhighwings'
p1254
(S'https://www.linkedin.com/in/ryleefowler'
I115000
tp1255
sS'bhoriuchi'
p1256
(S'https://www.linkedin.com/in/bhoriuchi'
I74000
tp1257
sS'brunotg'
p1258
(S'https://www.linkedin.com/in/brunot'
I136000
tp1259
sS'scottrice10'
p1260
(S'https://www.linkedin.com/in/scottrice10'
I146000
tp1261
sS'yashplorer'
p1262
(S'https://www.linkedin.com/in/yashplorer'
I82000
tp1263
sS'StuartHa'
p1264
(S'https://www.linkedin.com/in/stuartha'
I114000
tp1265
sS'wyne'
p1266
(S'https://www.linkedin.com/in/justinwyne'
I139000
tp1267
sS'heston'
p1268
(S'https://www.linkedin.com/in/heston'
I126000
tp1269
sS'dozoisch'
p1270
(S'https://www.linkedin.com/in/dozois'
I136000
tp1271
sS'nummi'
p1272
(S'https://www.linkedin.com/in/nummi'
I77000
tp1273
sS'vincentmac'
p1274
(S'https://www.linkedin.com/in/vincentmac'
I62000
tp1275
sS'bromanko'
p1276
(S'https://www.linkedin.com/in/bromanko'
I102000
tp1277
sS'bentruyman'
p1278
(S'https://www.linkedin.com/in/bentruyman'
I123000
tp1279
sS'weiweichen'
p1280
(S'https://www.linkedin.com/in/weiweichen07'
I152000
tp1281
sS'joeblau'
p1282
(S'https://www.linkedin.com/in/joeblau'
I61000
tp1283
sS'alohageck0'
p1284
(S'https://www.linkedin.com/in/evgenii-iavorovich-324286100'
I102000
tp1285
sS'levex'
p1286
(S'https://www.linkedin.com/in/levente-kurusa-85293084'
I95000
tp1287
sS'ericktai'
p1288
(S'https://www.linkedin.com/in/ericktai'
I361000
tp1289
sS'purag'
p1290
(S'https://www.linkedin.com/in/purag'
I64000
tp1291
sS'ceteri'
p1292
(S'https://www.linkedin.com/in/ceteri'
I55000
tp1293
sS'ramilsharifsoy'
p1294
(S'https://www.linkedin.com/in/ramilsharifsoy'
I82000
tp1295
sS'drtshock'
p1296
(S'https://www.linkedin.com/in/trent-hensler-91189497'
I79000
tp1297
sS'zmanji'
p1298
(S'https://www.linkedin.com/in/zmanji'
I134000
tp1299
sS'bmhayzlett'
p1300
(S'https://www.linkedin.com/in/brianhayzlett'
I70000
tp1301
sS'ladanazita'
p1302
(S'https://www.linkedin.com/in/ladanazita'
I95000
tp1303
sS'gguuss'
p1304
(S'https://www.linkedin.com/in/gclassy'
I133000
tp1305
sS'bugsyAlexander'
p1306
(S'https://www.linkedin.com/in/mynoralexander'
I95000
tp1307
sS'Ravenwater'
p1308
(S'https://www.linkedin.com/in/theodoreomtzigt'
I82000
tp1309
sS'sadiew'
p1310
(S'https://www.linkedin.com/in/sadiewilhelm'
I99000
tp1311
sS'amituuush'
p1312
(S'https://www.linkedin.com/in/amitranan'
I102000
tp1313
sS'yutakahoulette'
p1314
(S'https://www.linkedin.com/in/yutakahoulette'
I142000
tp1315
sS'mredar'
p1316
(S'https://www.linkedin.com/in/markredar'
I95000
tp1317
sS'cobookman'
p1318
(S'https://www.linkedin.com/in/colin-bookman-a938a937'
I102000
tp1319
sS'teleolurian'
p1320
(S'https://www.linkedin.com/in/sekeolkim'
I152000
tp1321
sS'jbrahy'
p1322
(S'https://www.linkedin.com/in/jbrahy'
I76000
tp1323
sS'vsergeev'
p1324
(S'https://www.linkedin.com/in/vanya-sergeev-42a12a6'
I71000
tp1325
sS'dlitz'
p1326
(S'https://www.linkedin.com/in/dlitz'
I71000
tp1327
sS'ryanoneill'
p1328
(S'https://www.linkedin.com/in/ryanconeill'
I91000
tp1329
sS'katiayx'
p1330
(S'https://www.linkedin.com/in/katiayx'
I77000
tp1331
sS'narenranjit'
p1332
(S'https://www.linkedin.com/in/narenranjit'
I136000
tp1333
sS'dbushong'
p1334
(S'https://www.linkedin.com/in/dbushong'
I77000
tp1335
sS'tdiede'
p1336
(S'https://www.linkedin.com/in/theresediede'
I95000
tp1337
sS'boz'
p1338
(S'https://www.linkedin.com/in/abozanich'
I116000
tp1339
sS'jonahwilliams'
p1340
(S'https://www.linkedin.com/in/jonahawilliams'
I106000
tp1341
sS'banga'
p1342
(S'https://www.linkedin.com/in/shrey-banga-9776ba117'
I71000
tp1343
sS'tonythomson'
p1344
(S'https://www.linkedin.com/in/tonythomson'
I77000
tp1345
sS'isubhransu'
p1346
(S'https://www.linkedin.com/in/isubhransu'
I62000
tp1347
sS'wileykestner'
p1348
(S'https://www.linkedin.com/in/wileykestner'
I143000
tp1349
sS'sarahfo'
p1350
(S'https://www.linkedin.com/in/sforegger'
I129000
tp1351
sS'Daegalus'
p1352
(S'https://www.linkedin.com/in/yuliankuncheff'
I158000
tp1353
sS'jheising'
p1354
(S'https://www.linkedin.com/in/jheising'
I41000
tp1355
sS'serkanpektas'
p1356
(S'https://www.linkedin.com/in/serkanpektas'
I57000
tp1357
sS'DiyahM'
p1358
(S'https://www.linkedin.com/in/hmujhid'
I76000
tp1359
sS'ztellman'
p1360
(S'https://www.linkedin.com/in/ztellman'
I181000
tp1361
sS'emmya'
p1362
(S'https://www.linkedin.com/in/emmyarm'
I96000
tp1363
sS'dsully'
p1364
(S'https://www.linkedin.com/in/dsully'
I123000
tp1365
sS'bechelani'
p1366
(S'https://www.linkedin.com/in/bechelani'
I102000
tp1367
sS'kurtisnelson'
p1368
(S'https://www.linkedin.com/in/kurtnelson'
I104000
tp1369
sS'danielkouba'
p1370
(S'https://www.linkedin.com/in/danielkouba'
I47000
tp1371
sS'tommykho'
p1372
(S'https://www.linkedin.com/in/tommyho'
I61000
tp1373
sS'adinardi'
p1374
(S'https://www.linkedin.com/in/adinardi'
I136000
tp1375
sS'evangoer'
p1376
(S'https://www.linkedin.com/in/evan-goer-58411a1'
I95000
tp1377
sS'francisco-perez-sorrosal'
p1378
(S'https://www.linkedin.com/in/fperezsorrosal'
I136000
tp1379
sS'kevinwestern'
p1380
(S'https://www.linkedin.com/in/kevinwestern'
I136000
tp1381
sS'chornyi'
p1382
(S'https://www.linkedin.com/in/chornyi'
I142000
tp1383
sS'philihp'
p1384
(S'https://www.linkedin.com/in/philihp'
I174000
tp1385
sS'malavbhavsar'
p1386
(S'https://www.linkedin.com/in/malavbhavsar'
I115000
tp1387
sS'rhallie15'
p1388
(S'https://www.linkedin.com/in/hallielomax'
I126000
tp1389
sS'erelson'
p1390
(S'https://www.linkedin.com/in/eric-relson-5384a712'
I129000
tp1391
sS'dbhaskaran'
p1392
(S'https://www.linkedin.com/in/dbhaskaran'
I112000
tp1393
sS'joshSzep'
p1394
(S'https://www.linkedin.com/in/joshszep'
I101000
tp1395
sS'pavlos'
p1396
(S'https://www.linkedin.com/in/phieromnimon'
I136000
tp1397
sS'srslafazan'
p1398
(S'https://www.linkedin.com/in/shainlafazan'
I118000
tp1399
sS'auldsy-ababua'
p1400
(S'https://www.linkedin.com/in/colin-aulds-a7834b103'
I55000
tp1401
sS'dangunter'
p1402
(S'https://www.linkedin.com/in/dangunter'
I51000
tp1403
sS'alexflint'
p1404
(S'https://www.linkedin.com/in/alexflint'
I55000
tp1405
sS'finik'
p1406
(S'https://www.linkedin.com/in/finik'
I130000
tp1407
sS'anudhagat'
p1408
(S'https://www.linkedin.com/in/anudhagat'
I100000
tp1409
sS'maxhodak'
p1410
(S'https://www.linkedin.com/in/maxhodak'
I75000
tp1411
sS'garvankeeley'
p1412
(S'https://www.linkedin.com/in/garvan-keeley-803256'
I205000
tp1413
sS'toddhodes'
p1414
(S'https://www.linkedin.com/in/toddhodes'
I212000
tp1415
sS'nmcglincy'
p1416
(S'https://www.linkedin.com/in/nmcglincy'
I80000
tp1417
sS'laurenor'
p1418
(S'https://www.linkedin.com/in/laurenortencio'
I142000
tp1419
sS'joshvermaire'
p1420
(S'https://www.linkedin.com/in/joshvermaire'
I103000
tp1421
sS'purplecabbage'
p1422
(S'https://www.linkedin.com/in/jessemacfadyen'
I139000
tp1423
sS'renderf0x'
p1424
(S'https://www.linkedin.com/in/derekryanbarncard'
I126000
tp1425
sS'mikatalk'
p1426
(S'https://www.linkedin.com/in/mika-i-a1318086'
I64000
tp1427
sS'Jimbly'
p1428
(S'https://www.linkedin.com/in/thesilentb'
I145000
tp1429
sS'jdforrester'
p1430
(S'https://www.linkedin.com/in/jdforrester'
I77000
tp1431
sS'bredfern'
p1432
(S'https://www.linkedin.com/in/bmredfern'
I115000
tp1433
sS'PedroMDuarte'
p1434
(S'https://www.linkedin.com/in/pedrodmribeiro'
I27000
tp1435
sS'jathanism'
p1436
(S'https://www.linkedin.com/in/jathanism'
I110000
tp1437
sS'nikunjchapadia'
p1438
(S'https://www.linkedin.com/in/nikunjchapadia'
I125000
tp1439
sS'nemo'
p1440
(S'https://www.linkedin.com/in/nimagardideh'
I109000
tp1441
sS'jbpoline'
p1442
(S'https://www.linkedin.com/in/jean-baptiste-poline-5923a04b'
I57000
tp1443
sS'samiur'
p1444
(S'https://www.linkedin.com/in/samiurr'
I77000
tp1445
sS'brochington'
p1446
(S'https://www.linkedin.com/in/broch-stilley-9481789'
I110000
tp1447
sS'jeffbcross'
p1448
(S'https://www.linkedin.com/in/jeffbcross'
I142000
tp1449
sS'monstersLA'
p1450
(S'https://www.linkedin.com/in/greg-morancey-1a0a3a12'
I45000
tp1451
sS'chadhietala'
p1452
(S'https://www.linkedin.com/in/chadhietala'
I114000
tp1453
sS'tyejones'
p1454
(S'https://www.linkedin.com/in/tyejones'
I138000
tp1455
sS'lachilles'
p1456
(S'https://www.linkedin.com/in/lachilles'
I95000
tp1457
sS'camsjams'
p1458
(S'https://www.linkedin.com/in/cameronmanavian'
I66000
tp1459
sS'darrylkuhn'
p1460
(S'https://www.linkedin.com/in/darrylkuhn'
I57000
tp1461
sS'jormon'
p1462
(S'https://www.linkedin.com/in/jormon'
I136000
tp1463
sS'mcrumm'
p1464
(S'https://www.linkedin.com/in/mcrumm'
I86000
tp1465
sS'fourdman'
p1466
(S'https://www.linkedin.com/in/fourdman'
I57000
tp1467
sS'SebastianThiebaud'
p1468
(S'https://www.linkedin.com/in/sebastienthiebaud'
I65000
tp1469
sS'levi'
p1470
(S'https://www.linkedin.com/in/levimccallum'
I95000
tp1471
sS'themattman'
p1472
(S'https://www.linkedin.com/in/matthewkneiser'
I101000
tp1473
sS'aphyr'
p1474
(S'https://www.linkedin.com/in/aphyr'
I57000
tp1475
sS'kurtzur'
p1476
(S'https://www.linkedin.com/in/kurtzur'
I123000
tp1477
sS'jannon'
p1478
(S'https://www.linkedin.com/in/jannonfrank'
I95000
tp1479
sS'john-ko'
p1480
(S'https://www.linkedin.com/in/johnko'
I94000
tp1481
sS'isaacg11'
p1482
(S'https://www.linkedin.com/in/isaac-grey-bab63a102'
I82000
tp1483
sS'avand'
p1484
(S'https://www.linkedin.com/in/avand'
I160000
tp1485
sS'jrm2k6'
p1486
(S'https://www.linkedin.com/in/jeremydagorn'
I101000
tp1487
sS'evansagge'
p1488
(S'https://www.linkedin.com/in/evansagge'
I174000
tp1489
sS'sbaar'
p1490
(S'https://www.linkedin.com/in/sbaar'
I133000
tp1491
sS'dmashal'
p1492
(S'https://www.linkedin.com/in/danmashal'
I81000
tp1493
sS'dzoba'
p1494
(S'https://www.linkedin.com/in/chrisdzoba'
I96000
tp1495
sS'acmcarther'
p1496
(S'https://www.linkedin.com/in/alexander-mcarther-568177b3'
I85000
tp1497
sS'chundongwang'
p1498
(S'https://www.linkedin.com/in/cd-wang-christine-h-trump-16307b127'
I46000
tp1499
sS'ianvanness'
p1500
(S'https://www.linkedin.com/in/ianvanness'
I100000
tp1501
sS'rakeshnair'
p1502
(S'https://www.linkedin.com/in/rakeshsnair'
I51000
tp1503
sS'ryanatwork'
p1504
(S'https://www.linkedin.com/in/ryanresella'
I110000
tp1505
sS'gregburek'
p1506
(S'https://www.linkedin.com/in/gregburek'
I153000
tp1507
sS'massiv64'
p1508
(S'https://www.linkedin.com/in/nichiguera'
I139000
tp1509
sS'coryodaniel'
p1510
(S'https://www.linkedin.com/in/coryodaniel'
I109000
tp1511
sS'pwfisher'
p1512
(S'https://www.linkedin.com/in/pwfisher'
I62000
tp1513
sS'fsalum'
p1514
(S'https://www.linkedin.com/in/fsalum'
I26000
tp1515
sS'heygrady'
p1516
(S'https://www.linkedin.com/in/heygrady'
I96000
tp1517
sS'HakanL'
p1518
(S'https://www.linkedin.com/in/hlindestaf'
I129000
tp1519
sS'daviddengcn'
p1520
(S'https://www.linkedin.com/in/daviddeng'
I85000
tp1521
sS'IsenrichO'
p1522
(S'https://www.linkedin.com/in/isenricholiver'
I95000
tp1523
sS'aculich'
p1524
(S'https://www.linkedin.com/in/aaron-culich-3369a12'
I126000
tp1525
sS'zakiali'
p1526
(S'https://www.linkedin.com/in/zakiali'
I67000
tp1527
sS'asponring'
p1528
(S'https://www.linkedin.com/in/asponring'
I128000
tp1529
sS'dnielsen'
p1530
(S'https://www.linkedin.com/in/dwnielsen'
I102000
tp1531
sS'cwebberOps'
p1532
(S'https://www.linkedin.com/in/cwebberops'
I107000
tp1533
sS'hamiltop'
p1534
(S'https://www.linkedin.com/in/hamiltop'
I104000
tp1535
sS'viksit'
p1536
(S'https://www.linkedin.com/in/viksit'
I77000
tp1537
sS'erichosick'
p1538
(S'https://www.linkedin.com/in/erichosick'
I57000
tp1539
sS'jonathanmoore'
p1540
(S'https://www.linkedin.com/in/jonathanmoore213'
I51000
tp1541
sS'suchow'
p1542
(S'https://www.linkedin.com/in/suchow'
I41000
tp1543
sS'JHadley1406'
p1544
(S'https://www.linkedin.com/in/jhadley1406'
I91000
tp1545
sS'chirayuk'
p1546
(S'https://www.linkedin.com/in/chirayuk'
I150000
tp1547
sS'ebalcomb'
p1548
(S'https://www.linkedin.com/in/ellibalcomb'
I82000
tp1549
sS'theanti9'
p1550
(S'https://www.linkedin.com/in/ryanmerl'
I139000
tp1551
sS'arilamstein'
p1552
(S'https://www.linkedin.com/in/arilamstein'
I95000
tp1553
sS'yuriybash'
p1554
(S'https://www.linkedin.com/in/yuriybash'
I136000
tp1555
sS'danafallon'
p1556
(S'https://www.linkedin.com/in/danafallon'
I57000
tp1557
sS'noprompt'
p1558
(S'https://www.linkedin.com/in/joelholdbrooks'
I102000
tp1559
sS'tylerstalder'
p1560
(S'https://www.linkedin.com/in/tylerstalder'
I95000
tp1561
sS'RyanWarner'
p1562
(S'https://www.linkedin.com/in/rnwarner'
I136000
tp1563
sS'grnbeagle'
p1564
(S'https://www.linkedin.com/in/amiekweon'
I164000
tp1565
sS'taliegarcia'
p1566
(S'https://www.linkedin.com/in/taliegarcia'
I77000
tp1567
sS'victorliu'
p1568
(S'https://www.linkedin.com/in/victorjliu'
I18000
tp1569
sS'marciandmnd'
p1570
(S'https://www.linkedin.com/in/marcian-diamond-61947968'
I139000
tp1571
sS'criccomini'
p1572
(S'https://www.linkedin.com/in/riccomini'
I142000
tp1573
sS'TheIronDeveloper'
p1574
(S'https://www.linkedin.com/in/theirondeveloper'
I142000
tp1575
sS'umgauper'
p1576
(S'https://www.linkedin.com/in/una-gauper-a828a054'
I106000
tp1577
sS'crandmck'
p1578
(S'https://www.linkedin.com/in/crandmck'
I77000
tp1579
sS'fusion94'
p1580
(S'https://www.linkedin.com/in/fusion94'
I171000
tp1581
sS'apastewk'
p1582
(S'https://www.linkedin.com/in/allison-pastewka'
I95000
tp1583
sS'issackelly'
p1584
(S'https://www.linkedin.com/in/issackelly'
I96000
tp1585
sS'cfieber'
p1586
(S'https://www.linkedin.com/in/cameronfieber'
I136000
tp1587
sS'wlindner'
p1588
(S'https://www.linkedin.com/in/wlindner'
I98000
tp1589
sS'bickart'
p1590
(S'https://www.linkedin.com/in/bickart'
I109000
tp1591
sS'cody-greene'
p1592
(S'https://www.linkedin.com/in/codymgreene'
I18000
tp1593
sS'slarson'
p1594
(S'https://www.linkedin.com/in/sklarson'
I57000
tp1595
sS'harlanji'
p1596
(S'https://www.linkedin.com/in/harlanji'
I96000
tp1597
sS'jakev'
p1598
(S'https://www.linkedin.com/in/2c3oj5lp'
I126000
tp1599
sS'mcpherrinm'
p1600
(S'https://www.linkedin.com/in/matthew-mcpherrin-61a63556'
I134000
tp1601
sS'elrond79'
p1602
(S'https://www.linkedin.com/in/paul-molodowitch-21a3b72'
I95000
tp1603
sS'kevinburke'
p1604
(S'https://www.linkedin.com/in/kvnburke'
I87000
tp1605
sS'fuJiin'
p1606
(S'https://www.linkedin.com/in/elpizochoi'
I132000
tp1607
sS'caynan'
p1608
(S'https://www.linkedin.com/in/caynan'
I77000
tp1609
sS'melicarls'
p1610
(S'https://www.linkedin.com/in/melicarls'
I77000
tp1611
sS'Arebeth'
p1612
(S'https://www.linkedin.com/in/arebethpease'
I68000
tp1613
sS'colinmarc'
p1614
(S'https://www.linkedin.com/in/colinman'
I77000
tp1615
sS'dcamposliz'
p1616
(S'https://www.linkedin.com/in/dcamposliz'
I66000
tp1617
sS'progrmr'
p1618
(S'https://www.linkedin.com/in/gary-a-morris-12422042'
I71000
tp1619
sS'sinanuozdemir'
p1620
(S'https://www.linkedin.com/in/sinanozdemir'
I91000
tp1621
sS'acastanieto'
p1622
(S'https://www.linkedin.com/in/angelacastanieto'
I126000
tp1623
sS'chandler767'
p1624
(S'https://www.linkedin.com/in/chandlermayo'
I140000
tp1625
sS'staugaard'
p1626
(S'https://www.linkedin.com/in/mickstaugaard'
I103000
tp1627
sS'avipatel91'
p1628
(S'https://www.linkedin.com/in/avipatel1'
I57000
tp1629
sS'heisters'
p1630
(S'https://www.linkedin.com/in/iansmithheisters'
I136000
tp1631
sS'reedloden'
p1632
(S'https://www.linkedin.com/in/reedloden'
I119000
tp1633
sS'Awnallah'
p1634
(S'https://www.linkedin.com/in/awnallah-maher-919b436a'
I71000
tp1635
sS'nixterrimus'
p1636
(S'https://www.linkedin.com/in/nixterrimus'
I77000
tp1637
sS'landongn'
p1638
(S'https://www.linkedin.com/in/landonnoss'
I106000
tp1639
sS'copacetic'
p1640
(S'https://www.linkedin.com/in/francois-hayg-astourian-65509989'
I153000
tp1641
sS'trevorgreenleaf'
p1642
(S'https://www.linkedin.com/in/trevorgreenleaf'
I63000
tp1643
sS'cbeighley'
p1644
(S'https://www.linkedin.com/in/colinbeighley'
I128000
tp1645
sS'nbarbettini'
p1646
(S'https://www.linkedin.com/in/nbarbettini'
I150000
tp1647
sS'jenmei'
p1648
(S'https://www.linkedin.com/in/jenmeiwu'
I123000
tp1649
sS'ilganeli'
p1650
(S'https://www.linkedin.com/in/ilganeli'
I77000
tp1651
sS'thirab'
p1652
(S'https://www.linkedin.com/in/tai-lan-hirabayashi-a3873551'
I142000
tp1653
sS'caglar10ur'
p1654
(S'https://www.linkedin.com/in/caglar10ur'
I95000
tp1655
sS'camirmas'
p1656
(S'https://www.linkedin.com/in/cameronirmas'
I95000
tp1657
sS'markleppa'
p1658
(S'https://www.linkedin.com/in/markleppa'
I77000
tp1659
sS'sbenthall'
p1660
(S'https://www.linkedin.com/in/sebastianbenthall'
I25000
tp1661
sS'eggsby'
p1662
(S'https://www.linkedin.com/in/thomas-omans-085ba040'
I125000
tp1663
sS'eldarshamukhamedov'
p1664
(S'https://www.linkedin.com/in/eldarshamukhamedov'
I126000
tp1665
sS'shykes'
p1666
(S'https://www.linkedin.com/in/solomonhykes'
I83000
tp1667
sS'jboyens'
p1668
(S'https://www.linkedin.com/in/jboyens'
I77000
tp1669
sS'sunshinewyin'
p1670
(S'https://www.linkedin.com/in/sunshineyin'
I96000
tp1671
sS'gprestes'
p1672
(S'https://www.linkedin.com/in/gprestes'
I144000
tp1673
sS'vsoch'
p1674
(S'https://www.linkedin.com/in/vsochat'
I104000
tp1675
sS'sanchitbareja'
p1676
(S'https://www.linkedin.com/in/sanchitbareja'
I146000
tp1677
sS'justintumale'
p1678
(S'https://www.linkedin.com/in/justin-tumale-083aab105'
I98000
tp1679
sS'marshallbrekka'
p1680
(S'https://www.linkedin.com/in/marshall-brekka-6b730538'
I87000
tp1681
sS'kavinderd'
p1682
(S'https://www.linkedin.com/in/kavinder-dhaliwal-b057a21b'
I143000
tp1683
sS'jaekwon'
p1684
(S'https://www.linkedin.com/in/jaekwon'
I132000
tp1685
sS'netspencer'
p1686
(S'https://www.linkedin.com/in/netspencer'
I138000
tp1687
sS'kthurimella'
p1688
(S'https://www.linkedin.com/in/kumarthurimella'
I134000
tp1689
sS'benubois'
p1690
(S'https://www.linkedin.com/in/ben-ubois-a80214108'
I125000
tp1691
sS'existenzial'
p1692
(S'https://www.linkedin.com/in/jazzlyles'
I95000
tp1693
sS'dpg5000'
p1694
(S'https://www.linkedin.com/in/davidgoussev'
I136000
tp1695
sS'devmeyster'
p1696
(S'https://www.linkedin.com/in/meyster'
I128000
tp1697
sS'jessehattabaugh'
p1698
(S'https://www.linkedin.com/in/codery'
I141000
tp1699
sS'mikofski'
p1700
(S'https://www.linkedin.com/in/markmikofski'
I136000
tp1701
sS'rishiprav'
p1702
(S'https://www.linkedin.com/in/rishirajpravahan'
I149000
tp1703
sS'callmevlad'
p1704
(S'https://www.linkedin.com/in/vladmagdalin'
I128000
tp1705
sS'brianmartin'
p1706
(S'https://www.linkedin.com/in/brianmorton'
I92000
tp1707
sS'trakout'
p1708
(S'https://www.linkedin.com/in/nischuk'
I100000
tp1709
sS'bsurnida'
p1710
(S'https://www.linkedin.com/in/bhaskersurnida'
I58000
tp1711
sS'jnmaloof'
p1712
(S'https://www.linkedin.com/in/julin-maloof-59280115'
I60000
tp1713
sS'leoadelstein'
p1714
(S'https://www.linkedin.com/in/leoadelstein'
I95000
tp1715
sS'SilasX'
p1716
(S'https://www.linkedin.com/in/silas-barta-7b406813'
I122000
tp1717
sS'rodrigosetti'
p1718
(S'https://www.linkedin.com/in/rodrigosetti'
I97000
tp1719
sS'davenquinn'
p1720
(S'https://www.linkedin.com/in/davenquinn'
I62000
tp1721
sS'amedeedaboville'
p1722
(S'https://www.linkedin.com/in/am%C3%A9d%C3%A9e-d-aboville-53715289'
I75000
tp1723
sS'casualjim'
p1724
(S'https://www.linkedin.com/in/casualjim'
I126000
tp1725
sS'ljagiello'
p1726
(S'https://www.linkedin.com/in/ljagiello'
I22000
tp1727
sS'dnegstad'
p1728
(S'https://www.linkedin.com/in/david-negstad-b847857'
I118000
tp1729
sS'FarhadG'
p1730
(S'https://www.linkedin.com/in/farhadg'
I51000
tp1731
sS'azanar'
p1732
(S'https://www.linkedin.com/in/ecarrel'
I136000
tp1733
sS'amitsnyderman'
p1734
(S'https://www.linkedin.com/in/amitsnyderman'
I116000
tp1735
sS'jmancherje'
p1736
(S'https://www.linkedin.com/in/justinmancherje'
I126000
tp1737
sS'pkmital'
p1738
(S'https://www.linkedin.com/in/pkmital'
I86000
tp1739
sS'tylerdavis'
p1740
(S'https://www.linkedin.com/in/tylerkdavis'
I77000
tp1741
sS'bvenners'
p1742
(S'https://www.linkedin.com/in/bill-venners-27570a1'
I95000
tp1743
sS'aniket-deole'
p1744
(S'https://www.linkedin.com/in/aniketdeole'
I81000
tp1745
sS'stevenschlansker'
p1746
(S'https://www.linkedin.com/in/stevenschlansker'
I142000
tp1747
sS'chadrik'
p1748
(S'https://www.linkedin.com/in/chad-dombrova-50b4542'
I76000
tp1749
sS'nyteshade'
p1750
(S'https://www.linkedin.com/in/nyteshade'
I102000
tp1751
sS'egaba88'
p1752
(S'https://www.linkedin.com/in/egaba'
I136000
tp1753
sS'heidikumar'
p1754
(S'https://www.linkedin.com/in/heidikumar'
I95000
tp1755
sS'praphull27'
p1756
(S'https://www.linkedin.com/in/praphull'
I81000
tp1757
sS'samuel'
p1758
(S'https://www.linkedin.com/in/samuelks'
I77000
tp1759
sS'barakmich'
p1760
(S'https://www.linkedin.com/in/barakmich'
I139000
tp1761
sS'grahamking'
p1762
(S'https://www.linkedin.com/in/2grahamking'
I36000
tp1763
sS'natewalck'
p1764
(S'https://www.linkedin.com/in/natewalck'
I136000
tp1765
sS'morninj'
p1766
(S'https://www.linkedin.com/in/morninj'
I110000
tp1767
sS'bclay'
p1768
(S'https://www.linkedin.com/in/bclaypoole'
I117000
tp1769
sS'bwbaugh'
p1770
(S'https://www.linkedin.com/in/bwbaugh'
I83000
tp1771
sS'chrisnash'
p1772
(S'https://www.linkedin.com/in/chrisnash1'
I67000
tp1773
sS'rahuljiresal'
p1774
(S'https://www.linkedin.com/in/rahuljiresal'
I126000
tp1775
sS'andrewmohrland'
p1776
(S'https://www.linkedin.com/in/andrewmohrland'
I95000
tp1777
sS'ftripier'
p1778
(S'https://www.linkedin.com/in/felix-tripier-a3502b70'
I128000
tp1779
sS'Carreau'
p1780
(S'https://www.linkedin.com/in/matthias-bussonnier-2512256a'
I93000
tp1781
sS'azorko'
p1782
(S'https://www.linkedin.com/in/azorko'
I149000
tp1783
sS'mhuerster'
p1784
(S'https://www.linkedin.com/in/maryhuerster'
I126000
tp1785
sS'ktiedt'
p1786
(S'https://www.linkedin.com/in/ktiedt'
I95000
tp1787
sS'joepestro'
p1788
(S'https://www.linkedin.com/in/joepestro'
I126000
tp1789
sS'nikolayvoronchikhin'
p1790
(S'https://www.linkedin.com/in/nikolayvoronchikhin'
I77000
tp1791
sS'dylanfoster'
p1792
(S'https://www.linkedin.com/in/dylanjfoster'
I103000
tp1793
sS'osternaudClem'
p1794
(S'https://www.linkedin.com/in/osternaudclement'
I139000
tp1795
sS'vzaliva'
p1796
(S'https://www.linkedin.com/in/vzaliva'
I94000
tp1797
sS'anooprh'
p1798
(S'https://www.linkedin.com/in/anoophallur'
I107000
tp1799
sS'tacho87'
p1800
(S'https://www.linkedin.com/in/anastaciogianareas'
I161000
tp1801
sS'fugalh'
p1802
(S'https://www.linkedin.com/in/hansfugal'
I95000
tp1803
sS'davedash'
p1804
(S'https://www.linkedin.com/in/davedash'
I77000
tp1805
sS'dferrantelli'
p1806
(S'https://www.linkedin.com/in/dominicferrantelli'
I110000
tp1807
sS'Qix-'
p1808
(S'https://www.linkedin.com/in/iamqix'
I109000
tp1809
sS'sarahsucha'
p1810
(S'https://www.linkedin.com/in/sarahsucha'
I96000
tp1811
sS'ch3rr17'
p1812
(S'https://www.linkedin.com/in/cherrbatac'
I44000
tp1813
sS'phvannor'
p1814
(S'https://www.linkedin.com/in/phillipvannortwick'
I181000
tp1815
sS'crempp'
p1816
(S'https://www.linkedin.com/in/chadrempp'
I116000
tp1817
sS'ssoudan'
p1818
(S'https://www.linkedin.com/in/ssoudan'
I164000
tp1819
sS'bhamodi'
p1820
(S'https://www.linkedin.com/in/baraahamodi'
I68000
tp1821
sS'karlmutch'
p1822
(S'https://www.linkedin.com/in/karlmutch'
I145000
tp1823
sS'turlockmike'
p1824
(S'https://www.linkedin.com/in/michaeldarmousseh'
I243000
tp1825
sS'tiagorg'
p1826
(S'https://www.linkedin.com/in/tiagorg'
I102000
tp1827
sS'gpeal'
p1828
(S'https://www.linkedin.com/in/gpeal'
I99000
tp1829
sS'hpaas001'
p1830
(S'https://www.linkedin.com/in/holgerpaas'
I76000
tp1831
sS'ryancbarry'
p1832
(S'https://www.linkedin.com/in/mryanbarry'
I96000
tp1833
sS'carterdea'
p1834
(S'https://www.linkedin.com/in/carterdea'
I130000
tp1835
sS'thinkski'
p1836
(S'https://www.linkedin.com/in/chris-hiszpanski-06a06667'
I148000
tp1837
sS'espiler'
p1838
(S'https://www.linkedin.com/in/evanspiler'
I128000
tp1839
sS'jeffomatic'
p1840
(S'https://www.linkedin.com/in/jeffomatic'
I100000
tp1841
sS'jpruf'
p1842
(S'https://www.linkedin.com/in/jenniferprufer'
I71000
tp1843
sS'jasonaibrahim'
p1844
(S'https://www.linkedin.com/in/jasonibrahim'
I42000
tp1845
sS'adamsch1'
p1846
(S'https://www.linkedin.com/in/adamsch1'
I57000
tp1847
sS'danielchalef'
p1848
(S'https://www.linkedin.com/in/danielchalef'
I95000
tp1849
sS'charford'
p1850
(S'https://www.linkedin.com/in/casey-harford-50a70521'
I117000
tp1851
sS'vandewilly'
p1852
(S'https://www.linkedin.com/in/vandewilly'
I123000
tp1853
sS'toddlipcon'
p1854
(S'https://www.linkedin.com/in/toddlipcon'
I143000
tp1855
sS'mudiarto'
p1856
(S'https://www.linkedin.com/in/mudiarto'
I102000
tp1857
sS'mars'
p1858
(S'https://www.linkedin.com/in/marsi'
I120000
tp1859
sS'lightster'
p1860
(S'https://www.linkedin.com/in/lightster'
I72000
tp1861
sS'eshilts'
p1862
(S'https://www.linkedin.com/in/erikshilts'
I100000
tp1863
sS'hartsick'
p1864
(S'https://www.linkedin.com/in/chartsock'
I96000
tp1865
sS'ysiadf'
p1866
(S'https://www.linkedin.com/in/ysiad'
I273000
tp1867
sS'Cruig'
p1868
(S'https://www.linkedin.com/in/carterfoxgrover'
I138000
tp1869
sS'jimjea'
p1870
(S'https://www.linkedin.com/in/jimmyjea'
I96000
tp1871
sS'JayKickliter'
p1872
(S'https://www.linkedin.com/in/jay-kickliter-51a39253'
I135000
tp1873
sS'kflorence'
p1874
(S'https://www.linkedin.com/in/kflorence'
I81000
tp1875
sS'abuddiga'
p1876
(S'https://www.linkedin.com/in/akshaybuddiga'
I149000
tp1877
sS'jreidgreer'
p1878
(S'https://www.linkedin.com/in/reidgreer'
I96000
tp1879
sS'accesio'
p1880
(S'https://www.linkedin.com/in/jimidamon'
I71000
tp1881
sS'jlamoree'
p1882
(S'https://www.linkedin.com/in/jlamoree'
I57000
tp1883
sS'alokedesai'
p1884
(S'https://www.linkedin.com/in/aloke-desai-b364b236'
I143000
tp1885
sS'bojdell'
p1886
(S'https://www.linkedin.com/in/bodecker'
I136000
tp1887
sS'lbearl'
p1888
(S'https://www.linkedin.com/in/lbearl'
I37000
tp1889
sS'karmadude'
p1890
(S'https://www.linkedin.com/in/lijijinaraj'
I146000
tp1891
sS'megawidget'
p1892
(S'https://www.linkedin.com/in/megawidget'
I95000
tp1893
sS'baldurrensch'
p1894
(S'https://www.linkedin.com/in/brensch'
I76000
tp1895
sS'baugarten'
p1896
(S'https://www.linkedin.com/in/benaugarten'
I57000
tp1897
sS'mgottscho'
p1898
(S'https://www.linkedin.com/in/markgottscho'
I78000
tp1899
sS'spyrosoft'
p1900
(S'https://www.linkedin.com/in/bennett-roesch-26b7a135'
I114000
tp1901
sS'jadengore'
p1902
(S'https://www.linkedin.com/in/edwardbramanti'
I102000
tp1903
sS'kmjch'
p1904
(S'https://www.linkedin.com/in/kmjch'
I77000
tp1905
sS'mdxp'
p1906
(S'https://www.linkedin.com/in/mariusducea'
I178000
tp1907
sS'forestbelton'
p1908
(S'https://www.linkedin.com/in/forest-belton-40109628'
I139000
tp1909
sS'archagon'
p1910
(S'https://www.linkedin.com/in/alexei-baboulevitch-74122922'
I95000
tp1911
sS'barmstrong'
p1912
(S'https://www.linkedin.com/in/barmstrong'
I77000
tp1913
sS'brycereynolds'
p1914
(S'https://www.linkedin.com/in/bryreynolds'
I102000
tp1915
sS'catrope'
p1916
(S'https://www.linkedin.com/in/roankattouw'
I139000
tp1917
sS'fritzdenim'
p1918
(S'https://www.linkedin.com/in/franz-noel-b4278370'
I57000
tp1919
sS'alexgorbatchev'
p1920
(S'https://www.linkedin.com/in/alexgorbatchev'
I144000
tp1921
sS'bdurand'
p1922
(S'https://www.linkedin.com/in/bbdurand'
I128000
tp1923
sS'bryanhelmig'
p1924
(S'https://www.linkedin.com/in/bryanhelmig'
I95000
tp1925
sS'irvingruan'
p1926
(S'https://www.linkedin.com/in/irvingruan'
I130000
tp1927
sS'kklimuk'
p1928
(S'https://www.linkedin.com/in/kirill-klimuk-5b76612b'
I123000
tp1929
sS'sachinrase'
p1930
(S'https://www.linkedin.com/in/sachinrase'
I119000
tp1931
sS'yiqin'
p1932
(S'https://www.linkedin.com/in/yiqin1'
I259000
tp1933
sS'joemcmahon'
p1934
(S'https://www.linkedin.com/in/jpmcmahon'
I105000
tp1935
sS'mennamorato'
p1936
(S'https://www.linkedin.com/in/mark-ennamorato-3582203'
I95000
tp1937
sS'macro'
p1938
(S'https://www.linkedin.com/in/chintomby'
I140000
tp1939
sS'dazarov'
p1940
(S'https://www.linkedin.com/in/daniel-azarov-83342610a'
I136000
tp1941
sS'bingomanatee'
p1942
(S'https://www.linkedin.com/in/daveedelhart'
I41000
tp1943
sS'eghobo'
p1944
(S'https://www.linkedin.com/in/eghobo'
I157000
tp1945
sS'arik-so'
p1946
(S'https://www.linkedin.com/in/ariksosman'
I103000
tp1947
sS'jamischarles'
p1948
(S'https://www.linkedin.com/in/jamischarles'
I162000
tp1949
sS'brianneisler'
p1950
(S'https://www.linkedin.com/in/brianneisler'
I95000
tp1951
sS'rykuehn'
p1952
(S'https://www.linkedin.com/in/rykuehn'
I57000
tp1953
sS'cadenichols'
p1954
(S'https://www.linkedin.com/in/cadenichols'
I57000
tp1955
sS'RichMorin'
p1956
(S'https://www.linkedin.com/in/richmorin'
I77000
tp1957
sS'marklar'
p1958
(S'https://www.linkedin.com/in/markwvh'
I95000
tp1959
sS'thomsbg'
p1960
(S'https://www.linkedin.com/in/thomsbg'
I47000
tp1961
sS'TimCannady'
p1962
(S'https://www.linkedin.com/in/timcannady'
I57000
tp1963
sS'amrit'
p1964
(S'https://www.linkedin.com/in/amritayalur'
I93000
tp1965
sS'justinpinili'
p1966
(S'https://www.linkedin.com/in/justinpinili'
I95000
tp1967
sS'eculver'
p1968
(S'https://www.linkedin.com/in/eculver'
I57000
tp1969
sS'gatoatigrado'
p1970
(S'https://www.linkedin.com/in/zora-tung-a55429103'
I132000
tp1971
sS'kapadiamush'
p1972
(S'https://www.linkedin.com/in/mushaheed-kapadia-784abb78'
I199000
tp1973
sS'L3DG3R'
p1974
(S'https://www.linkedin.com/in/brockluker'
I163000
tp1975
sS'timburks'
p1976
(S'https://www.linkedin.com/in/timburks'
I57000
tp1977
sS'thearthur'
p1978
(S'https://www.linkedin.com/in/arthur-ulfeldt-5150aa5'
I118000
tp1979
sS'chrismattmann'
p1980
(S'https://www.linkedin.com/in/chrismattmann'
I76000
tp1981
sS'taranamol'
p1982
(S'https://www.linkedin.com/in/taranamolkaur'
I109000
tp1983
sS'jimbrowne'
p1984
(S'https://www.linkedin.com/in/jmbrowne'
I57000
tp1985
sS'ccheever'
p1986
(S'https://www.linkedin.com/in/ccheever'
I57000
tp1987
sS'dasevilla'
p1988
(S'https://www.linkedin.com/in/dasevilla'
I136000
tp1989
sS'erinlehmkuhl'
p1990
(S'https://www.linkedin.com/in/erin-onstine-91bb964'
I116000
tp1991
sS'camillescott'
p1992
(S'https://www.linkedin.com/in/camillescott'
I44000
tp1993
sS'gormus'
p1994
(S'https://www.linkedin.com/in/gormus'
I118000
tp1995
sS'outsource'
p1996
(S'https://www.linkedin.com/in/convert'
I70000
tp1997
sS'nassirmz'
p1998
(S'https://www.linkedin.com/in/nassirmz'
I76000
tp1999
sS'ooleem'
p2000
(S'https://www.linkedin.com/in/ooleem'
I130000
tp2001
sS'67ideas'
p2002
(S'https://www.linkedin.com/in/jackhoge'
I87000
tp2003
sS'machouinard'
p2004
(S'https://www.linkedin.com/in/markchouinard'
I166000
tp2005
sS'LoRyder1'
p2006
(S'https://www.linkedin.com/in/lspnag'
I72000
tp2007
sS'dhirajsharma'
p2008
(S'https://www.linkedin.com/in/dhirajsharma'
I53000
tp2009
sS'StevenChung'
p2010
(S'https://www.linkedin.com/in/stevenchung1'
I57000
tp2011
sS'sebastienwindal'
p2012
(S'https://www.linkedin.com/in/sebastienwindal'
I41000
tp2013
sS'vmiculit'
p2014
(S'https://www.linkedin.com/in/valentinmiculit'
I94000
tp2015
sS'kennydo'
p2016
(S'https://www.linkedin.com/in/kennydo'
I83000
tp2017
sS'Zhyliana'
p2018
(S'https://www.linkedin.com/in/zhyliana'
I96000
tp2019
sS'ekampf'
p2020
(S'https://www.linkedin.com/in/erankampf'
I136000
tp2021
sS'theethiopian'
p2022
(S'https://www.linkedin.com/in/eyasufelleke'
I78000
tp2023
sS'robdvr'
p2024
(S'https://www.linkedin.com/in/robdavarnia'
I71000
tp2025
sS'samrocketman'
p2026
(S'https://www.linkedin.com/in/sam-gleske-8343ba32'
I111000
tp2027
sS'tve'
p2028
(S'https://www.linkedin.com/in/voneicken'
I61000
tp2029
sS'dlazerka'
p2030
(S'https://www.linkedin.com/in/dlazerka'
I130000
tp2031
sS'thenayr'
p2032
(S'https://www.linkedin.com/in/ryanvanniekerk'
I178000
tp2033
sS'AriT93'
p2034
(S'https://www.linkedin.com/in/arit93'
I171000
tp2035
sS'kennyt'
p2036
(S'https://www.linkedin.com/in/kennylt'
I62000
tp2037
sS'vikmeup'
p2038
(S'https://www.linkedin.com/in/vikmeup'
I123000
tp2039
sS'nybbles'
p2040
(S'https://www.linkedin.com/in/nimalanmahendran'
I136000
tp2041
sS'kukulski'
p2042
(S'https://www.linkedin.com/in/kukulski'
I167000
tp2043
sS'demonbane'
p2044
(S'https://www.linkedin.com/in/alexmalinovich'
I96000
tp2045
sS'Kaceykaso'
p2046
(S'https://www.linkedin.com/in/kaceycoughlin'
I139000
tp2047
sS'alexmingoia'
p2048
(S'https://www.linkedin.com/in/alexmingoia'
I153000
tp2049
sS'amotoohno'
p2050
(S'https://www.linkedin.com/in/mikeashmore'
I95000
tp2051
sS'uhoh-itsmaciek'
p2052
(S'https://www.linkedin.com/in/maciek-sakrejda-608aa73'
I171000
tp2053
sS'justinpincar'
p2054
(S'https://www.linkedin.com/in/justinpincar'
I83000
tp2055
sS'chinmaygarde'
p2056
(S'https://www.linkedin.com/in/chinmaygarde'
I142000
tp2057
sS'markcerqueira'
p2058
(S'https://www.linkedin.com/in/markcerqueira'
I129000
tp2059
sS'jmtoung'
p2060
(S'https://www.linkedin.com/in/jmtoung'
I133000
tp2061
sS'fmaker'
p2062
(S'https://www.linkedin.com/in/fmaker'
I77000
tp2063
sS'strycore'
p2064
(S'https://www.linkedin.com/in/mathieu-comandon-535411130'
I63000
tp2065
sS'jonfairbanks'
p2066
(S'https://www.linkedin.com/in/jonfairbanks'
I94000
tp2067
sS'amasad'
p2068
(S'https://www.linkedin.com/in/amjadmasad'
I78000
tp2069
sS'sri'
p2070
(S'https://www.linkedin.com/in/sriram-thaiyar-a7745923'
I136000
tp2071
sS'AlexeyMK'
p2072
(S'https://www.linkedin.com/in/alexeymk'
I167000
tp2073
sS'Stunner'
p2074
(S'https://www.linkedin.com/in/ajubbal'
I95000
tp2075
sS'vgeshel'
p2076
(S'https://www.linkedin.com/in/vgeshel'
I83000
tp2077
sS'ggilder'
p2078
(S'https://www.linkedin.com/in/gabrielgilder'
I134000
tp2079
sS'backus'
p2080
(S'https://www.linkedin.com/in/jbackus'
I50000
tp2081
sS'mduvall'
p2082
(S'https://www.linkedin.com/in/mduvall'
I77000
tp2083
sS'noahgolmant'
p2084
(S'https://www.linkedin.com/in/noahgolmant'
I64000
tp2085
sS'dmose'
p2086
(S'https://www.linkedin.com/in/dmose'
I77000
tp2087
sS'drewrothstein'
p2088
(S'https://www.linkedin.com/in/drewrothstein'
I77000
tp2089
sS'rglassett'
p2090
(S'https://www.linkedin.com/in/rglassett'
I136000
tp2091
sS'ebakan'
p2092
(S'https://www.linkedin.com/in/ebakan'
I52000
tp2093
sS'danielmurphy'
p2094
(S'https://www.linkedin.com/in/danielmurphy76'
I58000
tp2095
sS'theresaluu'
p2096
(S'https://www.linkedin.com/in/tluu-luu-53545377'
I71000
tp2097
sS'cvan'
p2098
(S'https://www.linkedin.com/in/cvanw'
I126000
tp2099
sS'maksimgm'
p2100
(S'https://www.linkedin.com/in/maksimmamrikov'
I113000
tp2101
sS'strager'
p2102
(S'https://www.linkedin.com/in/strager-brea-535ba71a'
I71000
tp2103
sS'tsaiDavid'
p2104
(S'https://www.linkedin.com/in/laidavid'
I77000
tp2105
sS'maxbeatty'
p2106
(S'https://www.linkedin.com/in/maxbeatty'
I77000
tp2107
sS'sebm'
p2108
(S'https://www.linkedin.com/in/sebastianmotraghi'
I128000
tp2109
sS'MSchip'
p2110
(S'https://www.linkedin.com/in/michaelschippert'
I126000
tp2111
sS'stolt45'
p2112
(S'https://www.linkedin.com/in/christopherstolt'
I95000
tp2113
sS'kennonkwok'
p2114
(S'https://www.linkedin.com/in/kennonkwok'
I118000
tp2115
sS'ackrause'
p2116
(S'https://www.linkedin.com/in/ackrause'
I116000
tp2117
sS'LuqiPan'
p2118
(S'https://www.linkedin.com/in/luqipan'
I89000
tp2119
sS'deadlyicon'
p2120
(S'https://www.linkedin.com/in/deadlyicon'
I89000
tp2121
sS'gonsie'
p2122
(S'https://www.linkedin.com/in/gonsie'
I83000
tp2123
sS'marcusbuffett'
p2124
(S'https://www.linkedin.com/in/marcusbuffett'
I128000
tp2125
sS'blopker'
p2126
(S'https://www.linkedin.com/in/blopker'
I149000
tp2127
sS'sfackler'
p2128
(S'https://www.linkedin.com/in/sfackler'
I114000
tp2129
sS'DhiMalo'
p2130
(S'https://www.linkedin.com/in/aheri'
I95000
tp2131
sS'testobsessed'
p2132
(S'https://www.linkedin.com/in/testobsessed'
I77000
tp2133
sS'syrusakbary'
p2134
(S'https://www.linkedin.com/in/syrusakbary'
I143000
tp2135
sS'irosenb'
p2136
(S'https://www.linkedin.com/in/irosenb'
I57000
tp2137
sS'yarixxx'
p2138
(S'https://www.linkedin.com/in/ikarandashev'
I174000
tp2139
sS'danschultz'
p2140
(S'https://www.linkedin.com/in/danmschultz'
I46000
tp2141
sS'jimmyislive'
p2142
(S'https://www.linkedin.com/in/jimmyislive'
I57000
tp2143
sS'pcrumm'
p2144
(S'https://www.linkedin.com/in/pcrumm'
I109000
tp2145
sS'cbeust'
p2146
(S'https://www.linkedin.com/in/cedricbeust'
I95000
tp2147
sS'valmassoi'
p2148
(S'https://www.linkedin.com/in/robertvalmassoi'
I80000
tp2149
sS'darylsew'
p2150
(S'https://www.linkedin.com/in/darylsew'
I71000
tp2151
sS'cwlbraa'
p2152
(S'https://www.linkedin.com/in/connor-braa-8363904a'
I136000
tp2153
sS'nickretallack'
p2154
(S'https://www.linkedin.com/in/nickretallack'
I134000
tp2155
sS'grantbow'
p2156
(S'https://www.linkedin.com/in/grantbow'
I77000
tp2157
sS'krunkosaurus'
p2158
(S'https://www.linkedin.com/in/readystate4'
I108000
tp2159
sS'alokmenghrajani'
p2160
(S'https://www.linkedin.com/in/alokmenghrajani'
I140000
tp2161
sS'grust101'
p2162
(S'https://www.linkedin.com/in/georgia-rust'
I65000
tp2163
sS'telaviv'
p2164
(S'https://www.linkedin.com/in/shawn-krisman-a7147732'
I126000
tp2165
sS'gouravtiwari'
p2166
(S'https://www.linkedin.com/in/gouravtiwari'
I90000
tp2167
sS'evanboho'
p2168
(S'https://www.linkedin.com/in/evankuchar'
I130000
tp2169
sS'ethankhall'
p2170
(S'https://www.linkedin.com/in/ethankhall'
I123000
tp2171
sS'yongsoo'
p2172
(S'https://www.linkedin.com/in/yongsoo'
I77000
tp2173
sS'pattychau'
p2174
(S'https://www.linkedin.com/in/pattychau'
I77000
tp2175
sS'joeworkman'
p2176
(S'https://www.linkedin.com/in/joeworkman'
I77000
tp2177
sS'chase-martin'
p2178
(S'https://www.linkedin.com/in/chasejmartin'
I30000
tp2179
sS'stevenheidel'
p2180
(S'https://www.linkedin.com/in/stevenheidel'
I106000
tp2181
sS'leranf'
p2182
(S'https://www.linkedin.com/in/leran-firer-54023256'
I132000
tp2183
sS'jackchi'
p2184
(S'https://www.linkedin.com/in/jackchi'
I57000
tp2185
sS'b1naryth1ef'
p2186
(S'https://www.linkedin.com/in/andrei-zbikowski-869b5aaa'
I143000
tp2187
sS'zik-uralov'
p2188
(S'https://www.linkedin.com/in/zikuralov'
I94000
tp2189
sS'framgjoa'
p2190
(S'https://www.linkedin.com/in/janessalink'
I139000
tp2191
sS'turadg'
p2192
(S'https://www.linkedin.com/in/turadg'
I105000
tp2193
sS'carlosvega20'
p2194
(S'https://www.linkedin.com/in/carlos-andres-de-la-vega-9360ab64'
I62000
tp2195
sS'nealhardesty'
p2196
(S'https://www.linkedin.com/in/nealhardesty'
I77000
tp2197
sS'jhartman'
p2198
(S'https://www.linkedin.com/in/jhartman'
I57000
tp2199
sS'dbachrach'
p2200
(S'https://www.linkedin.com/in/dbachrach'
I121000
tp2201
sS'shakefu'
p2202
(S'https://www.linkedin.com/in/jalheid'
I205000
tp2203
sS'NHDaly'
p2204
(S'https://www.linkedin.com/in/nhdaly'
I57000
tp2205
sS'sujeetv'
p2206
(S'https://www.linkedin.com/in/svsujeet'
I94000
tp2207
sS'chrislloyd'
p2208
(S'https://www.linkedin.com/in/jchrislloyd'
I102000
tp2209
sS'sergev'
p2210
(S'https://www.linkedin.com/in/sergevakulenko'
I145000
tp2211
sS'grepory'
p2212
(S'https://www.linkedin.com/in/grepory'
I136000
tp2213
sS'ccrame'
p2214
(S'https://www.linkedin.com/in/ccrame'
I76000
tp2215
sS'st3w4r'
p2216
(S'https://www.linkedin.com/in/yanaelbarbier'
I95000
tp2217
sS'dwickern'
p2218
(S'https://www.linkedin.com/in/derek-wickern-49513151'
I104000
tp2219
sS'kdelrosso'
p2220
(S'https://www.linkedin.com/in/kdelrosso'
I106000
tp2221
sS'alxhub'
p2222
(S'https://www.linkedin.com/in/alex-rickabaugh-1ab7b84'
I142000
tp2223
sS'symkat'
p2224
(S'https://www.linkedin.com/in/kaitlyn-parkhurst-247402101'
I83000
tp2225
sS'cat-haines'
p2226
(S'https://www.linkedin.com/in/cathaines'
I87000
tp2227
sS'raycmorgan'
p2228
(S'https://www.linkedin.com/in/raymorgan'
I39000
tp2229
sS'robey'
p2230
(S'https://www.linkedin.com/in/robey'
I100000
tp2231
sS'tachang'
p2232
(S'https://www.linkedin.com/in/jeffreytchang'
I82000
tp2233
sS'jrejaud'
p2234
(S'https://www.linkedin.com/in/jrejaud'
I126000
tp2235
sS'goxberry'
p2236
(S'https://www.linkedin.com/in/geoffrey-oxberry-3a6aa08'
I131000
tp2237
sS'aaronkim5'
p2238
(S'https://www.linkedin.com/in/aaronkim5'
I77000
tp2239
sS'jasonjchang'
p2240
(S'https://www.linkedin.com/in/jasonjchang'
I143000
tp2241
sS'serkanyersen'
p2242
(S'https://www.linkedin.com/in/serkanyersen'
I136000
tp2243
sS'revan'
p2244
(S'https://www.linkedin.com/in/sopher'
I155000
tp2245
sS'geirman'
p2246
(S'https://www.linkedin.com/in/geirman'
I57000
tp2247
sS'steveyen'
p2248
(S'https://www.linkedin.com/in/steveyen'
I57000
tp2249
sS'jessiahr'
p2250
(S'https://www.linkedin.com/in/jessiahr'
I93000
tp2251
sS'aceofspades'
p2252
(S'https://www.linkedin.com/in/dougpuchalski'
I126000
tp2253
sS'tabithablagdon'
p2254
(S'https://www.linkedin.com/in/tabitha-blagdon'
I94000
tp2255
sS'nharada1'
p2256
(S'https://www.linkedin.com/in/nathan-harada-22a46845'
I142000
tp2257
sS'luizirber'
p2258
(S'https://www.linkedin.com/in/luizirber'
I49000
tp2259
sS'blacktaxi'
p2260
(S'https://www.linkedin.com/in/sergeyyavnyi'
I96000
tp2261
sS'kneath'
p2262
(S'https://www.linkedin.com/in/kneath'
I77000
tp2263
sS'notno'
p2264
(S'https://www.linkedin.com/in/nrosquist'
I69000
tp2265
sS'dewski'
p2266
(S'https://www.linkedin.com/in/garrettbjerkhoel'
I116000
tp2267
sS'bfolkens'
p2268
(S'https://www.linkedin.com/in/bradfolkens'
I102000
tp2269
sS'gartz'
p2270
(S'https://www.linkedin.com/in/gabrielgartz'
I142000
tp2271
sS'joubertnel'
p2272
(S'https://www.linkedin.com/in/joubertnel'
I136000
tp2273
sS'cezarywojcik'
p2274
(S'https://www.linkedin.com/in/cezarywojcik'
I106000
tp2275
sS'cyrusmith'
p2276
(S'https://www.linkedin.com/in/cyrusmith'
I57000
tp2277
sS'zacholauson'
p2278
(S'https://www.linkedin.com/in/zacholauson'
I76000
tp2279
sS'chanezon'
p2280
(S'https://www.linkedin.com/in/chanezon'
I82000
tp2281
sS'yangchi'
p2282
(S'https://www.linkedin.com/in/yangch'
I102000
tp2283
sS'houjieth'
p2284
(S'https://www.linkedin.com/in/houjieth'
I127000
tp2285
sS'irae'
p2286
(S'https://www.linkedin.com/in/iraee'
I127000
tp2287
sS'rajsahae'
p2288
(S'https://www.linkedin.com/in/raj-sahae-0736267'
I144000
tp2289
sS'dtolnay'
p2290
(S'https://www.linkedin.com/in/david-tolnay-a83809110'
I38000
tp2291
sS'blarrabee'
p2292
(S'https://www.linkedin.com/in/blaise-larrabee-8513468b'
I95000
tp2293
sS'rosenhouse'
p2294
(S'https://www.linkedin.com/in/rosenhouse'
I116000
tp2295
sS'chiradeep'
p2296
(S'https://www.linkedin.com/in/chiradeepvittal'
I95000
tp2297
sS'royboy789'
p2298
(S'https://www.linkedin.com/in/royboy789'
I55000
tp2299
sS'bassoman'
p2300
(S'https://www.linkedin.com/in/jonathan-lancelle-262885120'
I30000
tp2301
sS'daqo'
p2302
(S'https://www.linkedin.com/in/dqorashi'
I136000
tp2303
sS'christopherdro'
p2304
(S'https://www.linkedin.com/in/chris-dro-43b642127'
I83000
tp2305
sS'sclark01'
p2306
(S'https://www.linkedin.com/in/sheact'
I144000
tp2307
sS'sandance'
p2308
(S'https://www.linkedin.com/in/sandance-christine-b3a13392'
I75000
tp2309
sS'sethladd'
p2310
(S'https://www.linkedin.com/in/sethladd'
I83000
tp2311
sS'ntemple'
p2312
(S'https://www.linkedin.com/in/nitemple'
I67000
tp2313
sS'davemun'
p2314
(S'https://www.linkedin.com/in/davemun'
I57000
tp2315
sS'cardoni'
p2316
(S'https://www.linkedin.com/in/cardoni'
I38000
tp2317
sS'dmzza'
p2318
(S'https://www.linkedin.com/in/dmazza'
I57000
tp2319
sS'jrk'
p2320
(S'https://www.linkedin.com/in/jonathanrk'
I96000
tp2321
sS'bufordtaylor'
p2322
(S'https://www.linkedin.com/in/bufordtaylor'
I57000
tp2323
sS'biilmann'
p2324
(S'https://www.linkedin.com/in/mathias-biilmann-christensen-a5a3805'
I96000
tp2325
sS'paulnt04'
p2326
(S'https://www.linkedin.com/in/paulpanarese'
I110000
tp2327
sS'clintworrell'
p2328
(S'https://www.linkedin.com/in/clintworrell'
I57000
tp2329
sS'tikhon'
p2330
(S'https://www.linkedin.com/in/tikhonbernstam'
I122000
tp2331
sS'jasonly'
p2332
(S'https://www.linkedin.com/in/jasonly1'
I46000
tp2333
sS'ChaiTeaNunes'
p2334
(S'https://www.linkedin.com/in/chai-nunes-2a4133a5'
I95000
tp2335
sS'bisonhubert'
p2336
(S'https://www.linkedin.com/in/bisonhubert'
I144000
tp2337
sS'blandinw'
p2338
(S'https://www.linkedin.com/in/willyblandin'
I136000
tp2339
sS'narenst'
p2340
(S'https://www.linkedin.com/in/narenst'
I71000
tp2341
sS'Ahad-Wasim'
p2342
(S'https://www.linkedin.com/in/ahadwasim'
I144000
tp2343
sS'nolenfelten'
p2344
(S'https://www.linkedin.com/in/nolenfelten'
I78000
tp2345
sS'kmalfatti'
p2346
(S'https://www.linkedin.com/in/kylemalfatti'
I96000
tp2347
sS'calebfornari'
p2348
(S'https://www.linkedin.com/in/calebfornari'
I123000
tp2349
sS'adriaanm'
p2350
(S'https://www.linkedin.com/in/adriaanm'
I166000
tp2351
sS'joshlf'
p2352
(S'https://www.linkedin.com/in/joshua-liebow-feeser-79b58b34'
I125000
tp2353
sS'rsutormin'
p2354
(S'https://www.linkedin.com/in/roman-sutormin-43481044'
I95000
tp2355
sS'MrBri'
p2356
(S'https://www.linkedin.com/in/tylerbriles'
I118000
tp2357
sS'csquared'
p2358
(S'https://www.linkedin.com/in/christopher-continanza-77181655'
I139000
tp2359
sS'bvierra'
p2360
(S'https://www.linkedin.com/in/bvierra'
I57000
tp2361
sS'Andolamin'
p2362
(S'https://www.linkedin.com/in/andolamin'
I126000
tp2363
sS'benwr'
p2364
(S'https://www.linkedin.com/in/benwr'
I160000
tp2365
sS'tdongsi'
p2366
(S'https://www.linkedin.com/in/cuong-dong-si-479b326'
I127000
tp2367
sS'anton-matosov'
p2368
(S'https://www.linkedin.com/in/antonmatosov'
I136000
tp2369
sS'kylelortscher'
p2370
(S'https://www.linkedin.com/in/kyle-lortscher-530645113'
I76000
tp2371
sS'chfritz'
p2372
(S'https://www.linkedin.com/in/cefritz'
I102000
tp2373
sS'lastres0rt'
p2374
(S'https://www.linkedin.com/in/rachelkeslensky'
I130000
tp2375
sS'rmd6502'
p2376
(S'https://www.linkedin.com/in/rmd6502'
I57000
tp2377
sS'imrokas'
p2378
(S'https://www.linkedin.com/in/rokas-z-6714633'
I71000
tp2379
sS'kevinsawicki'
p2380
(S'https://www.linkedin.com/in/kevinsawicki'
I57000
tp2381
sS'mapk'
p2382
(S'https://www.linkedin.com/in/uraine'
I61000
tp2383
sS'ross-pfahler'
p2384
(S'https://www.linkedin.com/in/ross-pfahler-2b38b932'
I101000
tp2385
sS'raejin'
p2386
(S'https://www.linkedin.com/in/raejin'
I99000
tp2387
sS'skizhak'
p2388
(S'https://www.linkedin.com/in/sarinkizhakkepurayil'
I136000
tp2389
sS'tstrimple'
p2390
(S'https://www.linkedin.com/in/tstrimple'
I110000
tp2391
sS'collinadams'
p2392
(S'https://www.linkedin.com/in/collinadams'
I57000
tp2393
sS'imwithsam'
p2394
(S'https://www.linkedin.com/in/samsonbrock'
I96000
tp2395
sS'levinunnink'
p2396
(S'https://www.linkedin.com/in/levi-nunnink-18baa72'
I71000
tp2397
sS'taahachaudhry'
p2398
(S'https://www.linkedin.com/in/taahachaudhry'
I62000
tp2399
sS'PatrickAuld'
p2400
(S'https://www.linkedin.com/in/patrickauld'
I41000
tp2401
sS'DouglasSherk'
p2402
(S'https://www.linkedin.com/in/dougsherk'
I93000
tp2403
sS'andrewmalta13'
p2404
(S'https://www.linkedin.com/in/andrew-malta-41b6a377'
I101000
tp2405
sS'marcoshack'
p2406
(S'https://www.linkedin.com/in/marcoshack'
I102000
tp2407
sS'hshoff'
p2408
(S'https://www.linkedin.com/in/hshoff'
I123000
tp2409
sS'jameelahuq'
p2410
(S'https://www.linkedin.com/in/jameelahuq'
I150000
tp2411
sS'elafargue'
p2412
(S'https://www.linkedin.com/in/elafargue'
I184000
tp2413
sS'ryanbahniuk'
p2414
(S'https://www.linkedin.com/in/ryanbahniuk'
I156000
tp2415
sS'gajimenezmaggiora'
p2416
(S'https://www.linkedin.com/in/gustavojimenezmaggiora'
I102000
tp2417
sS'laynefaler'
p2418
(S'https://www.linkedin.com/in/laynefaler'
I57000
tp2419
sS'jacobnisnevich'
p2420
(S'https://www.linkedin.com/in/jacob-nisnevich-a0294ba3'
I83000
tp2421
sS'egh'
p2422
(S'https://www.linkedin.com/in/ehetzner'
I112000
tp2423
sS'Pholey'
p2424
(S'https://www.linkedin.com/in/cassidy-bridges-01b431115'
I98000
tp2425
sS'paulrosania'
p2426
(S'https://www.linkedin.com/in/paulrosania'
I116000
tp2427
sS'lianos'
p2428
(S'https://www.linkedin.com/in/slianoglou'
I95000
tp2429
sS'ashleyjelks'
p2430
(S'https://www.linkedin.com/in/ashleyrjelks'
I77000
tp2431
sS'mk30'
p2432
(S'https://www.linkedin.com/in/marinakukso'
I95000
tp2433
sS'anantag'
p2434
(S'https://www.linkedin.com/in/anantag'
I81000
tp2435
sS'dherman'
p2436
(S'https://www.linkedin.com/in/dherman16'
I205000
tp2437
sS'hilava'
p2438
(S'https://www.linkedin.com/in/hilavaisler'
I95000
tp2439
sS'tdfischer'
p2440
(S'https://www.linkedin.com/in/victoria-fierce-47b45630'
I37000
tp2441
sS'RossAD'
p2442
(S'https://www.linkedin.com/in/rossad'
I57000
tp2443
sS'drem-darios'
p2444
(S'https://www.linkedin.com/in/drem-darios-40495916'
I93000
tp2445
sS'aadamowski'
p2446
(S'https://www.linkedin.com/in/aleksanderadamowski'
I136000
tp2447
sS'tinio'
p2448
(S'https://www.linkedin.com/in/tinio'
I139000
tp2449
sS'briansudo'
p2450
(S'https://www.linkedin.com/in/briansudev'
I58000
tp2451
sS'mattbornski'
p2452
(S'https://www.linkedin.com/in/mattbornski'
I177000
tp2453
sS'dnozay'
p2454
(S'https://www.linkedin.com/in/damiennozay'
I145000
tp2455
sS'KeleiAzz'
p2456
(S'https://www.linkedin.com/in/kelei-gong-96bb99a4'
I37000
tp2457
sS'NavyAnt24'
p2458
(S'https://www.linkedin.com/in/david-attarzadeh-14b219123'
I140000
tp2459
sS'dman7'
p2460
(S'https://www.linkedin.com/in/dmitriskj'
I118000
tp2461
sS'blesh'
p2462
(S'https://www.linkedin.com/in/blesh'
I102000
tp2463
sS'zbraniecki'
p2464
(S'https://www.linkedin.com/in/zbraniecki'
I95000
tp2465
sS'balumuriraj'
p2466
(S'https://www.linkedin.com/in/mohanraj-balumuri-31983a82'
I74000
tp2467
sS'jjjreisss'
p2468
(S'https://www.linkedin.com/in/jjjreisss'
I102000
tp2469
sS'fmoo'
p2470
(S'https://www.linkedin.com/in/ruibalp'
I144000
tp2471
sS'khardsonhurley'
p2472
(S'https://www.linkedin.com/in/khardsonhurley'
I136000
tp2473
sS'mjimaz'
p2474
(S'https://www.linkedin.com/in/mjimaz'
I140000
tp2475
sS'ed-flanagan'
p2476
(S'https://www.linkedin.com/in/edflanagan0'
I52000
tp2477
sS'bassettsj'
p2478
(S'https://www.linkedin.com/in/bassettsj'
I77000
tp2479
sS'gian'
p2480
(S'https://www.linkedin.com/in/gianp'
I77000
tp2481
sS'rameyrobo'
p2482
(S'https://www.linkedin.com/in/ramey-robles-b0ab0319'
I94000
tp2483
sS'seanhoughton'
p2484
(S'https://www.linkedin.com/in/seanhoughton1'
I230000
tp2485
sS'olalonde'
p2486
(S'https://www.linkedin.com/in/olilalonde'
I139000
tp2487
sS'rekhajoshm'
p2488
(S'https://www.linkedin.com/in/rekhajoshm'
I94000
tp2489
sS'ricardotealdi'
p2490
(S'https://www.linkedin.com/in/ricardotealdi'
I78000
tp2491
sS'saadmir'
p2492
(S'https://www.linkedin.com/in/saadmir'
I77000
tp2493
sS'psykidellic'
p2494
(S'https://www.linkedin.com/in/ritesh-nadhani-42415b14'
I84000
tp2495
sS'macressler'
p2496
(S'https://www.linkedin.com/in/macressler'
I57000
tp2497
sS'ehough'
p2498
(S'https://www.linkedin.com/in/ehough'
I57000
tp2499
sS'terinjokes'
p2500
(S'https://www.linkedin.com/in/terin'
I139000
tp2501
sS'dirk'
p2502
(S'https://www.linkedin.com/in/dirkgadsden'
I128000
tp2503
sS'gordon2012'
p2504
(S'https://www.linkedin.com/in/gordon-doskas'
I36000
tp2505
sS'ddeville'
p2506
(S'https://www.linkedin.com/in/ddeville84'
I85000
tp2507
sS'pickhardt'
p2508
(S'https://www.linkedin.com/in/pickhardt'
I125000
tp2509
sS'jintaoguan'
p2510
(S'https://www.linkedin.com/in/jintaoguan'
I127000
tp2511
sS'prophen'
p2512
(S'https://www.linkedin.com/in/nikema-prophet-72229962'
I71000
tp2513
sS'emezeske'
p2514
(S'https://www.linkedin.com/in/evan-mezeske-5241665'
I140000
tp2515
sS'keronakhla'
p2516
(S'https://www.linkedin.com/in/keronakhla'
I136000
tp2517
sS'dineshbhoopathy'
p2518
(S'https://www.linkedin.com/in/dineshbhoopathy'
I67000
tp2519
sS'thejameskyle'
p2520
(S'https://www.linkedin.com/in/thejameskyle'
I107000
tp2521
sS'viljamis'
p2522
(S'https://www.linkedin.com/in/viljamis'
I136000
tp2523
sS'NuckChorris'
p2524
(S'https://www.linkedin.com/in/peter-lejeck-41114431'
I107000
tp2525
sS'rspieldenner'
p2526
(S'https://www.linkedin.com/in/rob-spieldenner-4043195'
I136000
tp2527
sS'iwehrman'
p2528
(S'https://www.linkedin.com/in/ian-wehrman-63541962'
I129000
tp2529
sS'beyang'
p2530
(S'https://www.linkedin.com/in/beyang-liu-07651227'
I136000
tp2531
sS'huebs'
p2532
(S'https://www.linkedin.com/in/huebs'
I137000
tp2533
sS'mfine'
p2534
(S'https://www.linkedin.com/in/mafine'
I129000
tp2535
sS'jeyb'
p2536
(S'https://www.linkedin.com/in/jeybalachandran'
I181000
tp2537
sS'singlerider'
p2538
(S'https://www.linkedin.com/in/singlerider'
I136000
tp2539
sS'maryamklabib'
p2540
(S'https://www.linkedin.com/in/maryamlabib'
I141000
tp2541
sS'JoshRosen'
p2542
(S'https://www.linkedin.com/in/josharosen'
I70000
tp2543
sS'jareddlc'
p2544
(S'https://www.linkedin.com/in/jareddlc'
I99000
tp2545
sS'shervinshaikh'
p2546
(S'https://www.linkedin.com/in/shervinshaikh'
I28000
tp2547
sS'rameshvs'
p2548
(S'https://www.linkedin.com/in/rameshs'
I102000
tp2549
sS'divyekapoor'
p2550
(S'https://www.linkedin.com/in/divyekapoor'
I141000
tp2551
sS'sarbbottam'
p2552
(S'https://www.linkedin.com/in/sarbbottam'
I145000
tp2553
sS'adambaker'
p2554
(S'https://www.linkedin.com/in/adam-baker-pa-c-220621b6'
I102000
tp2555
sS'blzaugg'
p2556
(S'https://www.linkedin.com/in/byran-zaugg-a10919115'
I96000
tp2557
sS'skofman'
p2558
(S'https://www.linkedin.com/in/skofman'
I82000
tp2559
sS'nyarly'
p2560
(S'https://www.linkedin.com/in/judsonlester'
I76000
tp2561
sS'jcccf'
p2562
(S'https://www.linkedin.com/in/jcccf'
I34000
tp2563
sS'sponrad'
p2564
(S'https://www.linkedin.com/in/conrad-frame-7238a410'
I102000
tp2565
sS'rmuslimov'
p2566
(S'https://www.linkedin.com/in/rustem-muslimov-5982b045'
I136000
tp2567
sS'byron-hawkins'
p2568
(S'https://www.linkedin.com/in/byronhawkins'
I51000
tp2569
sS'misham'
p2570
(S'https://www.linkedin.com/in/mishamanulis'
I103000
tp2571
sS'jessepollak'
p2572
(S'https://www.linkedin.com/in/jessepollak'
I94000
tp2573
sS'edoecohen'
p2574
(S'https://www.linkedin.com/in/edoecohen'
I136000
tp2575
sS'rouzbeh84'
p2576
(S'https://www.linkedin.com/in/rouzbehsarrafieh'
I94000
tp2577
sS'bayreporta'
p2578
(S'https://www.linkedin.com/in/john-osborn-d-agostino-49675622'
I62000
tp2579
sS'zfogg'
p2580
(S'https://www.linkedin.com/in/zfogg'
I121000
tp2581
sS'sethah'
p2582
(S'https://www.linkedin.com/in/sethah'
I97000
tp2583
sS'leoromanovsky'
p2584
(S'https://www.linkedin.com/in/leoromanovsky'
I143000
tp2585
sS'arshad'
p2586
(S'https://www.linkedin.com/in/arshadcn'
I71000
tp2587
sS'skepticfx'
p2588
(S'https://www.linkedin.com/in/zer0day'
I96000
tp2589
sS'pdevine'
p2590
(S'https://www.linkedin.com/in/pdevine1'
I57000
tp2591
sS'collinjackson'
p2592
(S'https://www.linkedin.com/in/collinjackson'
I106000
tp2593
sS'jkeesh'
p2594
(S'https://www.linkedin.com/in/jeremy-keeshin-b29113b'
I87000
tp2595
sS'skakanka'
p2596
(S'https://www.linkedin.com/in/ankakondraska'
I95000
tp2597
sS'grigorovskaya'
p2598
(S'https://www.linkedin.com/in/grigorovskaya'
I110000
tp2599
sS'seangeleno'
p2600
(S'https://www.linkedin.com/in/seanesteva'
I117000
tp2601
sS'cfurrow'
p2602
(S'https://www.linkedin.com/in/carlfurrow'
I136000
tp2603
sS'pshatara'
p2604
(S'https://www.linkedin.com/in/pshatara'
I57000
tp2605
sS'moltendorf'
p2606
(S'https://www.linkedin.com/in/moltendorf'
I138000
tp2607
sS'sophypal'
p2608
(S'https://www.linkedin.com/in/sophy-pal-8b9964'
I92000
tp2609
sS'bwiklund'
p2610
(S'https://www.linkedin.com/in/ben-d-wiklund-0a92bb60'
I126000
tp2611
sS'kg'
p2612
(S'https://www.linkedin.com/in/katelyn-gadd-a72b97a4'
I70000
tp2613
sS'mrrockabilly'
p2614
(S'https://www.linkedin.com/in/jasonrubalcaba'
I102000
tp2615
sS'alghanmi'
p2616
(S'https://www.linkedin.com/in/alghanmi'
I58000
tp2617
sS'bnoguchi'
p2618
(S'https://www.linkedin.com/in/briannoguchi'
I63000
tp2619
sS'joksina'
p2620
(S'https://www.linkedin.com/in/jksalaudeen'
I126000
tp2621
sS'tbashor'
p2622
(S'https://www.linkedin.com/in/toddbashor'
I98000
tp2623
sS'nealfennimore'
p2624
(S'https://www.linkedin.com/in/nealfennimore'
I127000
tp2625
sS'rudyrigot'
p2626
(S'https://www.linkedin.com/in/rudyrigot'
I57000
tp2627
sS'stevejs'
p2628
(S'https://www.linkedin.com/in/stevejs'
I57000
tp2629
sS'AlexYursha'
p2630
(S'https://www.linkedin.com/in/alexyursha'
I126000
tp2631
sS'maxbrunsfeld'
p2632
(S'https://www.linkedin.com/in/max-brunsfeld-12528840'
I136000
tp2633
sS'iregina'
p2634
(S'https://www.linkedin.com/in/iregina'
I77000
tp2635
sS'damoncrockett'
p2636
(S'https://www.linkedin.com/in/damoncrockett'
I94000
tp2637
sS'mkidushim'
p2638
(S'https://www.linkedin.com/in/mkidushim'
I64000
tp2639
sS'l0s'
p2640
(S'https://www.linkedin.com/in/carlosmacasaet'
I132000
tp2641
sS'oliversong'
p2642
(S'https://www.linkedin.com/in/oliversong'
I124000
tp2643
sS'SethTisue'
p2644
(S'https://www.linkedin.com/in/sethtisue'
I128000
tp2645
sS'jdavisp3'
p2646
(S'https://www.linkedin.com/in/dave-peticolas-0bb45b1'
I69000
tp2647
sS'treyhunner'
p2648
(S'https://www.linkedin.com/in/treyhunner'
I82000
tp2649
sS'gianm'
p2650
(S'https://www.linkedin.com/in/gianmerlino'
I118000
tp2651
sS'nmccarthy'
p2652
(S'https://www.linkedin.com/in/neilmccarthy'
I90000
tp2653
sS'virajkanwade'
p2654
(S'https://www.linkedin.com/in/virajk'
I136000
tp2655
sS'sventech'
p2656
(S'https://www.linkedin.com/in/sventechie'
I136000
tp2657
sS'naomisorbet'
p2658
(S'https://www.linkedin.com/in/naomi-sorbet-41957711'
I31000
tp2659
sS'jamesandariese'
p2660
(S'https://www.linkedin.com/in/jamesandariese'
I174000
tp2661
sS'geointerest'
p2662
(S'https://www.linkedin.com/in/gregg-verutes-54b7554'
I94000
tp2663
sS'stavro'
p2664
(S'https://www.linkedin.com/in/seanstavropoulos'
I104000
tp2665
sS'mjdetullio'
p2666
(S'https://www.linkedin.com/in/mjdetullio'
I162000
tp2667
sS'mmcgrana'
p2668
(S'https://www.linkedin.com/in/mmcgrana'
I39000
tp2669
sS'dustin'
p2670
(S'https://www.linkedin.com/in/dsallings'
I95000
tp2671
sS'bradrydzewski'
p2672
(S'https://www.linkedin.com/in/bradrydzewski'
I78000
tp2673
sS'vjkaruna'
p2674
(S'https://www.linkedin.com/in/vjkaruna'
I136000
tp2675
sS'hkozachkov'
p2676
(S'https://www.linkedin.com/in/hkozachkov'
I93000
tp2677
sS'stuhlmueller'
p2678
(S'https://www.linkedin.com/in/stuhlmueller'
I79000
tp2679
sS'nullstyle'
p2680
(S'https://www.linkedin.com/in/nullstyle'
I127000
tp2681
sS'xmonmon'
p2682
(S'https://www.linkedin.com/in/monikachumber'
I58000
tp2683
sS'neilberget'
p2684
(S'https://www.linkedin.com/in/neilberget'
I100000
tp2685
sS'zolrath'
p2686
(S'https://www.linkedin.com/in/matt-furden-885215113'
I106000
tp2687
sS'filiph'
p2688
(S'https://www.linkedin.com/in/visible'
I109000
tp2689
sS'SomeKittens'
p2690
(S'https://www.linkedin.com/in/randall-koutnik-5276ba50'
I146000
tp2691
sS'milospjanic'
p2692
(S'https://www.linkedin.com/in/milos-pjanic-a3b39746'
I63000
tp2693
sS'strazzere'
p2694
(S'https://www.linkedin.com/in/timstrazzere'
I128000
tp2695
sS'gabrielkunkel'
p2696
(S'https://www.linkedin.com/in/gabrielkunkel'
I56000
tp2697
sS'montlebalm'
p2698
(S'https://www.linkedin.com/in/chris-montrois-b4a4b19'
I103000
tp2699
sS'EvanGoss'
p2700
(S'https://www.linkedin.com/in/evangoss'
I57000
tp2701
sS'whitneybelba'
p2702
(S'https://www.linkedin.com/in/whitneybelba'
I42000
tp2703
sS'tshiwakoti'
p2704
(S'https://www.linkedin.com/in/tejshiwakoti'
I96000
tp2705
sS'kstrauser'
p2706
(S'https://www.linkedin.com/in/kirk-strauser-2638b'
I95000
tp2707
sS'pedramphp'
p2708
(S'https://www.linkedin.com/in/mahdi-pedramrazi-16867532'
I145000
tp2709
sS'fabrol'
p2710
(S'https://www.linkedin.com/in/farhan-abrol-44a22b16'
I95000
tp2711
sS'dansimpson'
p2712
(S'https://www.linkedin.com/in/dansimpsonuk'
I44000
tp2713
sS'taptapdan'
p2714
(S'https://www.linkedin.com/in/taptapdan'
I57000
tp2715
sS'MacBoyPro'
p2716
(S'https://www.linkedin.com/in/lee-lundrigan-062b924b'
I139000
tp2717
sS'charlieyan'
p2718
(S'https://www.linkedin.com/in/charlieyan'
I53000
tp2719
sS'chengsieuly'
p2720
(S'https://www.linkedin.com/in/chengsieuly'
I62000
tp2721
sS'tbietila'
p2722
(S'https://www.linkedin.com/in/taylor-bietila-08b678104'
I82000
tp2723
sS'tlhunter'
p2724
(S'https://www.linkedin.com/in/tomhunterii'
I35000
tp2725
sS'greysonp'
p2726
(S'https://www.linkedin.com/in/greysonp'
I113000
tp2727
sS'reyjrar'
p2728
(S'https://www.linkedin.com/in/blhotsky'
I95000
tp2729
sS'ikai'
p2730
(S'https://www.linkedin.com/in/ikailan'
I136000
tp2731
sS'cparnot'
p2732
(S'https://www.linkedin.com/in/charlesparnot'
I71000
tp2733
sS'zmbush'
p2734
(S'https://www.linkedin.com/in/zmbush'
I208000
tp2735
sS'erikpukinskis'
p2736
(S'https://www.linkedin.com/in/erikpukinskis'
I95000
tp2737
sS'jmg2107'
p2738
(S'https://www.linkedin.com/in/jennica-goo-0b8934'
I95000
tp2739
sS'henrikerola'
p2740
(S'https://www.linkedin.com/in/henrikerola'
I182000
tp2741
sS'borski'
p2742
(S'https://www.linkedin.com/in/borski'
I55000
tp2743
sS'zbowling'
p2744
(S'https://www.linkedin.com/in/zbowling'
I147000
tp2745
sS'jorhett'
p2746
(S'https://www.linkedin.com/in/jorhett'
I145000
tp2747
sS'adamhadani'
p2748
(S'https://www.linkedin.com/in/adamhadani'
I136000
tp2749
sS'johnwilkey'
p2750
(S'https://www.linkedin.com/in/johnawilkey'
I115000
tp2751
sS'junzh0u'
p2752
(S'https://www.linkedin.com/in/junzh0u'
I102000
tp2753
sS'sidharthgoel'
p2754
(S'https://www.linkedin.com/in/sidharthgoel'
I77000
tp2755
sS'chenguangshen'
p2756
(S'https://www.linkedin.com/in/chenguangshen'
I62000
tp2757
sS'brentluna'
p2758
(S'https://www.linkedin.com/in/brent-luna'
I77000
tp2759
sS'mattcl'
p2760
(S'https://www.linkedin.com/in/matthew-chun-lum-4743642b'
I126000
tp2761
sS'lauraskelton'
p2762
(S'https://www.linkedin.com/in/lauraskelton'
I15000
tp2763
sS'RafaelCosman'
p2764
(S'https://www.linkedin.com/in/rafaelcosman'
I104000
tp2765
sS'colinkahn'
p2766
(S'https://www.linkedin.com/in/colinkahn'
I62000
tp2767
sS'gregheo'
p2768
(S'https://www.linkedin.com/in/gregheo'
I164000
tp2769
sS'RyanNaughton'
p2770
(S'https://www.linkedin.com/in/ryannaughton'
I77000
tp2771
sS'luciferous'
p2772
(S'https://www.linkedin.com/in/neumanvong'
I138000
tp2773
sS'gjtrowbridge'
p2774
(S'https://www.linkedin.com/in/gjtrowbridge'
I77000
tp2775
sS'jackemuk'
p2776
(S'https://www.linkedin.com/in/jackemuk'
I107000
tp2777
sS'jingli430'
p2778
(S'https://www.linkedin.com/in/jingli430'
I77000
tp2779
sS'jaxlaw'
p2780
(S'https://www.linkedin.com/in/jaxlaw'
I140000
tp2781
sS'mrosales'
p2782
(S'https://www.linkedin.com/in/micah-rosales-2b572990'
I30000
tp2783
sS'shyiko'
p2784
(S'https://www.linkedin.com/in/shyiko'
I102000
tp2785
sS'look'
p2786
(S'https://www.linkedin.com/in/lukefrancl'
I96000
tp2787
sS'mikekap'
p2788
(S'https://www.linkedin.com/in/mkaplinskiy'
I82000
tp2789
sS'joannejang'
p2790
(S'https://www.linkedin.com/in/joannejang'
I61000
tp2791
sS'TooTallNate'
p2792
(S'https://www.linkedin.com/in/nathan-rajlich-aaa17233'
I126000
tp2793
sS'greenido'
p2794
(S'https://www.linkedin.com/in/greenido'
I69000
tp2795
sS'dominic'
p2796
(S'https://www.linkedin.com/in/dominic-dagradi-3b403a105'
I116000
tp2797
sS'elissatong'
p2798
(S'https://www.linkedin.com/in/elissatong'
I157000
tp2799
sS'leonardykris'
p2800
(S'https://www.linkedin.com/in/leonardykris'
I102000
tp2801
sS'mickaelpham'
p2802
(S'https://www.linkedin.com/in/mickaelpham'
I88000
tp2803
sS'chadrem'
p2804
(S'https://www.linkedin.com/in/chadremesch'
I111000
tp2805
sS'yannikmesserli'
p2806
(S'https://www.linkedin.com/in/yannikmesserli'
I85000
tp2807
sS'cduruk'
p2808
(S'https://www.linkedin.com/in/cduruk'
I132000
tp2809
sS'nicolasgomollon'
p2810
(S'https://www.linkedin.com/in/nicolasgomollon'
I95000
tp2811
sS'jpf'
p2812
(S'https://www.linkedin.com/in/joelfranusic'
I147000
tp2813
sS'bryankaraffa'
p2814
(S'https://www.linkedin.com/in/bryankaraffa'
I137000
tp2815
sS'spartanadvent'
p2816
(S'https://www.linkedin.com/in/ericcesena'
I64000
tp2817
sS'spond'
p2818
(S'https://www.linkedin.com/in/sergei-kosakovsky-pond-8a429'
I71000
tp2819
sS'5harf'
p2820
(S'https://www.linkedin.com/in/jacksonsharf'
I125000
tp2821
sS'Conanza'
p2822
(S'https://www.linkedin.com/in/conantzou'
I95000
tp2823
sS'striglia'
p2824
(S'https://www.linkedin.com/in/striglia'
I144000
tp2825
sS'djchie'
p2826
(S'https://www.linkedin.com/in/derrickchie'
I146000
tp2827
sS'jonobr1'
p2828
(S'https://www.linkedin.com/in/jonobr1'
I122000
tp2829
sS'perezd'
p2830
(S'https://www.linkedin.com/in/perezd'
I106000
tp2831
sS'bwmcadams'
p2832
(S'https://www.linkedin.com/in/bwmcadams'
I77000
tp2833
sS'myazhbin'
p2834
(S'https://www.linkedin.com/in/myazhbin'
I96000
tp2835
sS'genjinoguchi'
p2836
(S'https://www.linkedin.com/in/genjinoguchi'
I93000
tp2837
sS'ralstonpl2'
p2838
(S'https://www.linkedin.com/in/ralston-louie'
I95000
tp2839
sS'zigzackattack'
p2840
(S'https://www.linkedin.com/in/zacharybabtkis'
I105000
tp2841
sS'Ykatesque'
p2842
(S'https://www.linkedin.com/in/yekaterina-novikova-77bb6822'
I143000
tp2843
sS'bsiddiqui'
p2844
(S'https://www.linkedin.com/in/bsiddiqui'
I123000
tp2845
sS'lxe'
p2846
(S'https://www.linkedin.com/in/alekseysmolenchuk'
I134000
tp2847
sS'jmurzy'
p2848
(S'https://www.linkedin.com/in/jmurzy'
I116000
tp2849
sS'dentearl'
p2850
(S'https://www.linkedin.com/in/dent-earl-8384b05b'
I140000
tp2851
sS'acanyon'
p2852
(S'https://www.linkedin.com/in/acanyon'
I75000
tp2853
sS'blakewatters'
p2854
(S'https://www.linkedin.com/in/blakewatters'
I116000
tp2855
sS'ulugbekov'
p2856
(S'https://www.linkedin.com/in/alisher-ulugbekov-14327118'
I83000
tp2857
sS'rooharrigan'
p2858
(S'https://www.linkedin.com/in/rooharrigan'
I136000
tp2859
sS'knt'
p2860
(S'https://www.linkedin.com/in/kntreadway'
I139000
tp2861
sS'carmelyne'
p2862
(S'https://www.linkedin.com/in/carmelyne'
I76000
tp2863
sS'vocino'
p2864
(S'https://www.linkedin.com/in/vocino'
I142000
tp2865
sS'jdaggett'
p2866
(S'https://www.linkedin.com/in/jdaggett'
I57000
tp2867
sS'alevchuk'
p2868
(S'https://www.linkedin.com/in/alevchuk'
I87000
tp2869
sS'williamcotton'
p2870
(S'https://www.linkedin.com/in/williamcotton'
I57000
tp2871
sS'jasonlally'
p2872
(S'https://www.linkedin.com/in/jasonlally'
I82000
tp2873
sS'danielrhodes'
p2874
(S'https://www.linkedin.com/in/danielcrhodes'
I57000
tp2875
sS'alitsiya'
p2876
(S'https://www.linkedin.com/in/alitsiyayusupova'
I139000
tp2877
sS'steveblue'
p2878
(S'https://www.linkedin.com/in/steveblue'
I116000
tp2879
sS'sandan'
p2880
(S'https://www.linkedin.com/in/sandan'
I103000
tp2881
sS'blampe'
p2882
(S'https://www.linkedin.com/in/brycelampe'
I127000
tp2883
sS'nornagon'
p2884
(S'https://www.linkedin.com/in/jeremy-apthorp-08b2558b'
I128000
tp2885
sS'dgmltn'
p2886
(S'https://www.linkedin.com/in/dgmltn'
I99000
tp2887
sS'aminert'
p2888
(S'https://www.linkedin.com/in/aminert'
I88000
tp2889
sS'Kalson'
p2890
(S'https://www.linkedin.com/in/kalson-kalu-32067973'
I82000
tp2891
sS'SonnyTosco'
p2892
(S'https://www.linkedin.com/in/sonnytosco'
I95000
tp2893
sS'shaddi'
p2894
(S'https://www.linkedin.com/in/shaddi-hasan-45b25929'
I136000
tp2895
sS'pjambet'
p2896
(S'https://www.linkedin.com/in/pierre-jambet'
I125000
tp2897
sS'bhelx'
p2898
(S'https://www.linkedin.com/in/benjamin-eckel-185ba7111'
I79000
tp2899
sS'aninahpets'
p2900
(S'https://www.linkedin.com/in/ninamulholland'
I109000
tp2901
sS'andyperlitch'
p2902
(S'https://www.linkedin.com/in/andy-perlitch-a3b92442'
I123000
tp2903
sS'laurengordonfahn'
p2904
(S'https://www.linkedin.com/in/lauren-gordon-fahn'
I96000
tp2905
sS'craffel'
p2906
(S'https://www.linkedin.com/in/colin-raffel-6b557b20'
I82000
tp2907
sS'strongh'
p2908
(S'https://www.linkedin.com/in/homer-strong-64578810'
I77000
tp2909
sS'ClaudiuC'
p2910
(S'https://www.linkedin.com/in/claudiugilcescu'
I27000
tp2911
sS'leegao'
p2912
(S'https://www.linkedin.com/in/leegao'
I57000
tp2913
sS'brainstarr'
p2914
(S'https://www.linkedin.com/in/brianrstarr'
I47000
tp2915
sS'iandeboisblanc'
p2916
(S'https://www.linkedin.com/in/iandeboisblanc'
I128000
tp2917
sS'Benvie'
p2918
(S'https://www.linkedin.com/in/bbenvie'
I95000
tp2919
sS'redhotpenguin'
p2920
(S'https://www.linkedin.com/in/redhotpenguin'
I77000
tp2921
sS'yankov'
p2922
(S'https://www.linkedin.com/in/artemyankov'
I108000
tp2923
sS'DoraKorpar'
p2924
(S'https://www.linkedin.com/in/dora-korpar-4572a071'
I44000
tp2925
sS'sudarkoff'
p2926
(S'https://www.linkedin.com/in/sudarkoff'
I136000
tp2927
sS'Lavos'
p2928
(S'https://www.linkedin.com/in/kristophercost'
I81000
tp2929
sS'BrianBland'
p2930
(S'https://www.linkedin.com/in/briantbland'
I124000
tp2931
sS'sidbatra'
p2932
(S'https://www.linkedin.com/in/sidbatra'
I102000
tp2933
sS'kavika13'
p2934
(S'https://www.linkedin.com/in/merlyn-morgan-graham-0b86891'
I100000
tp2935
sS'cg-'
p2936
(S'https://www.linkedin.com/in/colegrim'
I72000
tp2937
sS'nlokare'
p2938
(S'https://www.linkedin.com/in/neillokare'
I126000
tp2939
sS'bertrandom'
p2940
(S'https://www.linkedin.com/in/bertrandom'
I119000
tp2941
sS'markkolich'
p2942
(S'https://www.linkedin.com/in/markkolich'
I95000
tp2943
sS'sophiakc'
p2944
(S'https://www.linkedin.com/in/sophiakc'
I95000
tp2945
sS'hyfather'
p2946
(S'https://www.linkedin.com/in/nikhilmungel'
I96000
tp2947
sS'maxgoedjen'
p2948
(S'https://www.linkedin.com/in/max-goedjen-2b1bb064'
I115000
tp2949
sS'lucasderraugh'
p2950
(S'https://www.linkedin.com/in/lucasderraugh'
I97000
tp2951
sS'JoshHighland'
p2952
(S'https://www.linkedin.com/in/joshhighland'
I57000
tp2953
sS'mfaywu'
p2954
(S'https://www.linkedin.com/in/mfaywu'
I62000
tp2955
sS'prydonius'
p2956
(S'https://www.linkedin.com/in/prydonius'
I123000
tp2957
sS'yfalcon8'
p2958
(S'https://www.linkedin.com/in/yuki-falcon'
I96000
tp2959
sS'shanemcgraw'
p2960
(S'https://www.linkedin.com/in/shanemcgraw'
I111000
tp2961
sS'geekrelief'
p2962
(S'https://www.linkedin.com/in/don-duong-quach-03444925'
I126000
tp2963
sS'lindison'
p2964
(S'https://www.linkedin.com/in/lindison-webb-bb751524'
I164000
tp2965
sS'sghiassy'
p2966
(S'https://www.linkedin.com/in/shaheenghiassy'
I143000
tp2967
sS'PolymathicCoder'
p2968
(S'https://www.linkedin.com/in/polymathiccoder'
I95000
tp2969
sS'ajgrande924'
p2970
(S'https://www.linkedin.com/in/ajgrande924'
I126000
tp2971
sS'jesseditson'
p2972
(S'https://www.linkedin.com/in/jesseditson'
I77000
tp2973
sS'asya999'
p2974
(S'https://www.linkedin.com/in/asya999'
I210000
tp2975
sS'njwilson'
p2976
(S'https://www.linkedin.com/in/njwilson84'
I136000
tp2977
sS'jprempeh'
p2978
(S'https://www.linkedin.com/in/joeprempeh'
I57000
tp2979
sS'LeeGar'
p2980
(S'https://www.linkedin.com/in/leegar'
I102000
tp2981
sS'froyvalencia'
p2982
(S'https://www.linkedin.com/in/froyvalencia'
I77000
tp2983
sS'bcipolli'
p2984
(S'https://www.linkedin.com/in/dr-ben-cipollini-217709b'
I89000
tp2985
sS'Northshoot'
p2986
(S'https://www.linkedin.com/in/riliskis'
I47000
tp2987
sS'adamzr'
p2988
(S'https://www.linkedin.com/in/adamrich'
I99000
tp2989
sS'akikoiwamizu'
p2990
(S'https://www.linkedin.com/in/akikoiwamizu'
I53000
tp2991
sS'brennanMKE'
p2992
(S'https://www.linkedin.com/in/smallsharptools'
I78000
tp2993
sS'aaronsakowski'
p2994
(S'https://www.linkedin.com/in/aaronsakowski'
I77000
tp2995
sS'vihanchaudhry'
p2996
(S'https://www.linkedin.com/in/vihanchaudhry'
I69000
tp2997
sS'steved'
p2998
(S'https://www.linkedin.com/in/stevendavidovitz'
I144000
tp2999
sS'ijayasin'
p3000
(S'https://www.linkedin.com/in/ijayasin'
I77000
tp3001
sS'milincjoshi'
p3002
(S'https://www.linkedin.com/in/milincjoshi'
I57000
tp3003
sS'Darktex'
p3004
(S'https://www.linkedin.com/in/testuggine'
I113000
tp3005
sS'MatthewWelch'
p3006
(S'https://www.linkedin.com/in/matthewwelch2'
I77000
tp3007
sS'russellhaering'
p3008
(S'https://www.linkedin.com/in/russellhaering'
I128000
tp3009
sS'lost-theory'
p3010
(S'https://www.linkedin.com/in/steven-kryskalla-76a12a4'
I136000
tp3011
sS'flarnie'
p3012
(S'https://www.linkedin.com/in/flarnie'
I139000
tp3013
sS'pas256'
p3014
(S'https://www.linkedin.com/in/petersankauskas'
I75000
tp3015
sS'brianvoss'
p3016
(S'https://www.linkedin.com/in/brian-voss'
I270000
tp3017
sS'wesalvaro'
p3018
(S'https://www.linkedin.com/in/wesalvaro'
I106000
tp3019
sS'fzf'
p3020
(S'https://www.linkedin.com/in/fzfowler'
I126000
tp3021
sS'sinak'
p3022
(S'https://www.linkedin.com/in/sinakhanifar'
I128000
tp3023
sS'munkymack'
p3024
(S'https://www.linkedin.com/in/aaronautrand'
I96000
tp3025
sS'magicgrl111'
p3026
(S'https://www.linkedin.com/in/selbywalker'
I128000
tp3027
sS'metcalf'
p3028
(S'https://www.linkedin.com/in/ametcalf'
I102000
tp3029
sS'johannakate'
p3030
(S'https://www.linkedin.com/in/jo-kate-8444568b'
I46000
tp3031
sS'smaupin'
p3032
(S'https://www.linkedin.com/in/scotmaupin'
I66000
tp3033
sS'AnishSid'
p3034
(S'https://www.linkedin.com/in/anishsid'
I112000
tp3035
sS'kevinswiber'
p3036
(S'https://www.linkedin.com/in/kevinswiber'
I77000
tp3037
sS'nemigaservices'
p3038
(S'https://www.linkedin.com/in/romansmolgovsky'
I156000
tp3039
sS'kaushaldeo'
p3040
(S'https://www.linkedin.com/in/kaushaldeo'
I110000
tp3041
sS'ChadFong'
p3042
(S'https://www.linkedin.com/in/chadfong'
I57000
tp3043
sS'aglover'
p3044
(S'https://www.linkedin.com/in/aglover'
I79000
tp3045
sS'DhruvKalaria'
p3046
(S'https://www.linkedin.com/in/dhruvkalaria'
I77000
tp3047
sS'jsomara'
p3048
(S'https://www.linkedin.com/in/jsomara'
I57000
tp3049
sS'philipecasarotte'
p3050
(S'https://www.linkedin.com/in/philipecasarotte'
I87000
tp3051
sS'jdeff'
p3052
(S'https://www.linkedin.com/in/jayme-deffenbaugh-a2a1201a'
I91000
tp3053
sS'alagappanr'
p3054
(S'https://www.linkedin.com/in/alagappanv'
I57000
tp3055
sS'ehosseiniasl'
p3056
(S'https://www.linkedin.com/in/ehsan-hosseini-asl-4b2b2828'
I143000
tp3057
sS'danielribeirosilva'
p3058
(S'https://www.linkedin.com/in/danielribeirosilva'
I106000
tp3059
sS'kesava'
p3060
(S'https://www.linkedin.com/in/kesava'
I102000
tp3061
sS'blevinstein'
p3062
(S'https://www.linkedin.com/in/brian-levinstein-6ba62014'
I96000
tp3063
sS'ianchesal'
p3064
(S'https://www.linkedin.com/in/ianchesal'
I95000
tp3065
sS'mannykary'
p3066
(S'https://www.linkedin.com/in/mannykary'
I76000
tp3067
sS'clayallsopp'
p3068
(S'https://www.linkedin.com/in/clayallsopp'
I119000
tp3069
sS'alykhank'
p3070
(S'https://www.linkedin.com/in/alykhank'
I145000
tp3071
sS'iancze'
p3072
(S'https://www.linkedin.com/in/ianczekala'
I71000
tp3073
sS'jammons'
p3074
(S'https://www.linkedin.com/in/jammons'
I75000
tp3075
sS'eboudrant'
p3076
(S'https://www.linkedin.com/in/eboudrant'
I134000
tp3077
sS'runningcode'
p3078
(S'https://www.linkedin.com/in/nelsonosacky'
I167000
tp3079
sS'kaylanb'
p3080
(S'https://www.linkedin.com/in/kaylanb'
I59000
tp3081
sS'cpill0789'
p3082
(S'https://www.linkedin.com/in/carl-pillot-00a90930'
I76000
tp3083
sS'marcel-valdez'
p3084
(S'https://www.linkedin.com/in/marcelvaldez'
I142000
tp3085
sS'divoxx'
p3086
(S'https://www.linkedin.com/in/rodrigok'
I139000
tp3087
sS'dhrushilbadani'
p3088
(S'https://www.linkedin.com/in/dhrushil-badani-b83420106'
I93000
tp3089
sS'shichao-an'
p3090
(S'https://www.linkedin.com/in/shichaoan'
I127000
tp3091
sS'rkuo'
p3092
(S'https://www.linkedin.com/in/rikuo'
I52000
tp3093
sS'iamadawra'
p3094
(S'https://www.linkedin.com/in/aayushdawra'
I95000
tp3095
sS'jdoliner'
p3096
(S'https://www.linkedin.com/in/joe-doliner-96060815'
I142000
tp3097
sS'ChapmanSnowden'
p3098
(S'https://www.linkedin.com/in/chapmansnowden'
I84000
tp3099
sS'bengolder'
p3100
(S'https://www.linkedin.com/in/bgolder'
I87000
tp3101
sS'knzconnor'
p3102
(S'https://www.linkedin.com/in/knzconnor'
I160000
tp3103
sS'rohan-joshi'
p3104
(S'https://www.linkedin.com/in/rohanjoshi'
I153000
tp3105
sS'jason-osajima'
p3106
(S'https://www.linkedin.com/in/jasonosajima'
I76000
tp3107
sS'stechico'
p3108
(S'https://www.linkedin.com/in/sherwintechico'
I71000
tp3109
sS'azat-co'
p3110
(S'https://www.linkedin.com/in/azatm'
I64000
tp3111
sS'ymek'
p3112
(S'https://www.linkedin.com/in/mykestubbs'
I139000
tp3113
sS'fkling'
p3114
(S'https://www.linkedin.com/in/fkling'
I143000
tp3115
sS'wagenet'
p3116
(S'https://www.linkedin.com/in/wagenet'
I88000
tp3117
sS'duncantl'
p3118
(S'https://www.linkedin.com/in/duncan-temple-lang-a1413937'
I82000
tp3119
sS'MarvelMoe'
p3120
(S'https://www.linkedin.com/in/moe-himed-5b068717'
I116000
tp3121
sS'dgrundfest'
p3122
(S'https://www.linkedin.com/in/dgrundfest'
I139000
tp3123
sS'mzlittle'
p3124
(S'https://www.linkedin.com/in/mzlittle'
I57000
tp3125
sS'jkschneider'
p3126
(S'https://www.linkedin.com/in/jonkschneider'
I102000
tp3127
sS'ejconlon'
p3128
(S'https://www.linkedin.com/in/ejconlon'
I77000
tp3129
sS'thorbenprimke'
p3130
(S'https://www.linkedin.com/in/tprimke'
I174000
tp3131
sS'krobertson'
p3132
(S'https://www.linkedin.com/in/kenrobertson'
I102000
tp3133
sS'straszheim'
p3134
(S'https://www.linkedin.com/in/troy-straszheim-b7685348'
I88000
tp3135
sS'morganherlocker'
p3136
(S'https://www.linkedin.com/in/morgan-herlocker-1948671b'
I119000
tp3137
sS'tilgovi'
p3138
(S'https://www.linkedin.com/in/tilgovi'
I77000
tp3139
sS'alexland'
p3140
(S'https://www.linkedin.com/in/dougybarbo'
I150000
tp3141
sS'edshadi'
p3142
(S'https://www.linkedin.com/in/edshadi'
I136000
tp3143
sS'frsyuki'
p3144
(S'https://www.linkedin.com/in/sadayuki-furuhashi-04b75439'
I58000
tp3145
sS'iamwilhelm'
p3146
(S'https://www.linkedin.com/in/iamwilhelm'
I77000
tp3147
sS'Restuta'
p3148
(S'https://www.linkedin.com/in/restuta'
I136000
tp3149
sS'assaf'
p3150
(S'https://www.linkedin.com/in/assafarkin'
I229000
tp3151
sS'clement'
p3152
(S'https://www.linkedin.com/in/clementnodet'
I136000
tp3153
sS'elliottburris'
p3154
(S'https://www.linkedin.com/in/elliottburris'
I72000
tp3155
sS'danopia'
p3156
(S'https://www.linkedin.com/in/danopia'
I102000
tp3157
sS'samweiller'
p3158
(S'https://www.linkedin.com/in/sam-weiller-76b8a51a'
I91000
tp3159
sS'SegFaultAX'
p3160
(S'https://www.linkedin.com/in/mkbernard'
I136000
tp3161
sS'dvidsilva'
p3162
(S'https://www.linkedin.com/in/dvid-silva-364727130'
I17000
tp3163
sS'olgabot'
p3164
(S'https://www.linkedin.com/in/olgabotvinnik'
I87000
tp3165
sS'mattrobenolt'
p3166
(S'https://www.linkedin.com/in/mattrobenolt'
I78000
tp3167
sS'artgo'
p3168
(S'https://www.linkedin.com/in/artgo'
I94000
tp3169
sS'vgvenkat'
p3170
(S'https://www.linkedin.com/in/vgvenkat'
I125000
tp3171
sS'kevinzwhuang'
p3172
(S'https://www.linkedin.com/in/kevinkhuang'
I77000
tp3173
sS'lbarberiscanoni'
p3174
(S'https://www.linkedin.com/in/lorenzo-barberis-canonico-612734aa'
I70000
tp3175
sS'samdturner'
p3176
(S'https://www.linkedin.com/in/samdturner'
I77000
tp3177
sS'meveridge'
p3178
(S'https://www.linkedin.com/in/mark-everidge-858b5a57'
I142000
tp3179
sS'jbankes'
p3180
(S'https://www.linkedin.com/in/jbankes'
I27000
tp3181
sS'nscricco'
p3182
(S'https://www.linkedin.com/in/nscricco'
I128000
tp3183
sS'rhonsby'
p3184
(S'https://www.linkedin.com/in/rhonsby'
I126000
tp3185
sS'kode54'
p3186
(S'https://www.linkedin.com/in/christopher-snowhill-862b3980'
I68000
tp3187
sS'adeleinr'
p3188
(S'https://www.linkedin.com/in/adeleinr'
I143000
tp3189
sS'davegw'
p3190
(S'https://www.linkedin.com/in/davegw'
I126000
tp3191
sS'vmharrel'
p3192
(S'https://www.linkedin.com/in/vijayharrell'
I136000
tp3193
sS'swrobel'
p3194
(S'https://www.linkedin.com/in/swrobel'
I97000
tp3195
sS'technikyle'
p3196
(S'https://www.linkedin.com/in/kylerokita'
I139000
tp3197
sS'johnbender'
p3198
(S'https://www.linkedin.com/in/johnwbender'
I192000
tp3199
sS'ramijan'
p3200
(S'https://www.linkedin.com/in/ramiburpee'
I102000
tp3201
sS'tmacwill'
p3202
(S'https://www.linkedin.com/in/tmacwill'
I127000
tp3203
sS'SakoMe'
p3204
(S'https://www.linkedin.com/in/sarkis-m-2457b622'
I66000
tp3205
sS'mwylde'
p3206
(S'https://www.linkedin.com/in/wylde'
I149000
tp3207
sS'ggrumbley'
p3208
(S'https://www.linkedin.com/in/ggrumbley'
I71000
tp3209
sS'sarahmei'
p3210
(S'https://www.linkedin.com/in/sarahmei'
I77000
tp3211
sS'francislagueu'
p3212
(S'https://www.linkedin.com/in/francis-lagueu-fogang-4a65b034'
I76000
tp3213
sS'allensarkisyan'
p3214
(S'https://www.linkedin.com/in/allensarkisyan'
I110000
tp3215
sS'mcculloughsean'
p3216
(S'https://www.linkedin.com/in/mcculloughsean'
I154000
tp3217
sS'gfosco'
p3218
(S'https://www.linkedin.com/in/33fosco'
I96000
tp3219
sS'Ollynov'
p3220
(S'https://www.linkedin.com/in/aljosha-novakovic'
I96000
tp3221
sS'timols'
p3222
(S'https://www.linkedin.com/in/timols'
I95000
tp3223
sS'jamesalbert'
p3224
(S'https://www.linkedin.com/in/jamesalbert1'
I51000
tp3225
sS'amedhussaini'
p3226
(S'https://www.linkedin.com/in/amedhussaini'
I125000
tp3227
sS'hirangoly'
p3228
(S'https://www.linkedin.com/in/hirangoly'
I132000
tp3229
sS'aroman'
p3230
(S'https://www.linkedin.com/in/aviromanoff'
I61000
tp3231
sS'jakebellacera'
p3232
(S'https://www.linkedin.com/in/jakebellacera'
I75000
tp3233
sS'Sauraus'
p3234
(S'https://www.linkedin.com/in/antekbaranski'
I121000
tp3235
sS'timurcatakli'
p3236
(S'https://www.linkedin.com/in/timurcatakli'
I126000
tp3237
sS'lorinbeer'
p3238
(S'https://www.linkedin.com/in/lorinbeer'
I55000
tp3239
sS'tonycosentini'
p3240
(S'https://www.linkedin.com/in/tonycosentini'
I127000
tp3241
sS'Jaesin'
p3242
(S'https://www.linkedin.com/in/jaesin-mulenex-8a62839'
I60000
tp3243
sS'michaelshobbs'
p3244
(S'https://www.linkedin.com/in/michaelshobbs'
I77000
tp3245
sS'doubleyou'
p3246
(S'https://www.linkedin.com/in/dmitrydemeshchuk'
I156000
tp3247
sS'vogievetsky'
p3248
(S'https://www.linkedin.com/in/vogievetsky'
I95000
tp3249
sS'ziz'
p3250
(S'https://www.linkedin.com/in/devesine'
I71000
tp3251
sS'Pchelolo'
p3252
(S'https://www.linkedin.com/in/pchelolo'
I128000
tp3253
sS'kevtakaoka'
p3254
(S'https://www.linkedin.com/in/kevintakaoka'
I123000
tp3255
sS'ericrwolfe'
p3256
(S'https://www.linkedin.com/in/ericrwolfe'
I138000
tp3257
sS'c4ssio'
p3258
(S'https://www.linkedin.com/in/cpaesleme'
I171000
tp3259
sS'caiotoon'
p3260
(S'https://www.linkedin.com/in/caiotoon'
I105000
tp3261
sS'pencil'
p3262
(S'https://www.linkedin.com/in/nilscaspar'
I96000
tp3263
sS'alecmce'
p3264
(S'https://www.linkedin.com/in/alecmce'
I122000
tp3265
sS'LowryTang'
p3266
(S'https://www.linkedin.com/in/lowry-tang-91ab81109'
I142000
tp3267
sS'waynn'
p3268
(S'https://www.linkedin.com/in/waynn'
I95000
tp3269
sS'JoshuaGross'
p3270
(S'https://www.linkedin.com/in/joshgross'
I119000
tp3271
sS'markuscraig'
p3272
(S'https://www.linkedin.com/in/markjcraig'
I102000
tp3273
sS'aselder'
p3274
(S'https://www.linkedin.com/in/andrew-selder-34166b9'
I136000
tp3275
sS'gabriel'
p3276
(S'https://www.linkedin.com/in/gabriel-handford-16219abb'
I125000
tp3277
sS'rahimftd'
p3278
(S'https://www.linkedin.com/in/rahimdharssi'
I97000
tp3279
sS'shawnshuang'
p3280
(S'https://www.linkedin.com/in/shawnhuang'
I123000
tp3281
sS'lingsitu1290'
p3282
(S'https://www.linkedin.com/in/lingsitu1290'
I77000
tp3283
sS'KevinPike'
p3284
(S'https://www.linkedin.com/in/kevinepike'
I157000
tp3285
sS'RISCfuture'
p3286
(S'https://www.linkedin.com/in/riscfuture'
I122000
tp3287
sS'frohoff'
p3288
(S'https://www.linkedin.com/in/frohoff'
I125000
tp3289
sS'mwhuss'
p3290
(S'https://www.linkedin.com/in/mwhuss'
I136000
tp3291
sS'alexforencich'
p3292
(S'https://www.linkedin.com/in/alexforencich'
I47000
tp3293
sS'ragaskar'
p3294
(S'https://www.linkedin.com/in/ragaskar'
I136000
tp3295
sS'christopherjwang'
p3296
(S'https://www.linkedin.com/in/christopherroywang'
I76000
tp3297
sS'goldsmith'
p3298
(S'https://www.linkedin.com/in/goldsmith1'
I57000
tp3299
sS'vframbach'
p3300
(S'https://www.linkedin.com/in/vframbach'
I96000
tp3301
sS'georgebashi'
p3302
(S'https://www.linkedin.com/in/georgebashi'
I124000
tp3303
sS'jheise'
p3304
(S'https://www.linkedin.com/in/joheise'
I110000
tp3305
sS'sozercan'
p3306
(S'https://www.linkedin.com/in/sozercan'
I135000
tp3307
sS'corbinu'
p3308
(S'https://www.linkedin.com/in/corbin-uselton-55a98536'
I99000
tp3309
sS'gdevanla'
p3310
(S'https://www.linkedin.com/in/guru-devanla-2715983'
I76000
tp3311
sS'Gkjsdll'
p3312
(S'https://www.linkedin.com/in/gkjsdll'
I96000
tp3313
sS'kuanb'
p3314
(S'https://www.linkedin.com/in/kuanbutts'
I126000
tp3315
sS'mundizzle'
p3316
(S'https://www.linkedin.com/in/mundi'
I139000
tp3317
sS'mmaelzer'
p3318
(S'https://www.linkedin.com/in/maelzer'
I142000
tp3319
sS'airandfingers'
p3320
(S'https://www.linkedin.com/in/aaron-yoshitake-6a114016'
I94000
tp3321
sS'agchou'
p3322
(S'https://www.linkedin.com/in/agchou'
I57000
tp3323
sS'asarazan'
p3324
(S'https://www.linkedin.com/in/aaronsarazan'
I139000
tp3325
sS'mjesuele'
p3326
(S'https://www.linkedin.com/in/mjesuele'
I41000
tp3327
sS'semmypurewal'
p3328
(S'https://www.linkedin.com/in/semmypurewal'
I136000
tp3329
sS'corywalker'
p3330
(S'https://www.linkedin.com/in/corywalker1'
I57000
tp3331
sS'jnu'
p3332
(S'https://www.linkedin.com/in/joseph-nudell-357b7a80'
I120000
tp3333
sS'icivgin'
p3334
(S'https://www.linkedin.com/in/iancivgin'
I118000
tp3335
sS'tsharman'
p3336
(S'https://www.linkedin.com/in/torehan'
I88000
tp3337
sS'cjnething'
p3338
(S'https://www.linkedin.com/in/nething'
I112000
tp3339
sS'cleverdevil'
p3340
(S'https://www.linkedin.com/in/cleverdevil'
I57000
tp3341
sS'wgester'
p3342
(S'https://www.linkedin.com/in/wgester'
I188000
tp3343
sS'frubioda'
p3344
(S'https://www.linkedin.com/in/frubiodacosta'
I82000
tp3345
sS'lee-egist'
p3346
(S'https://www.linkedin.com/in/lee2egist'
I95000
tp3347
sS'cyril-sf'
p3348
(S'https://www.linkedin.com/in/cyrilfluck'
I95000
tp3349
sS'jsoverson'
p3350
(S'https://www.linkedin.com/in/jsoverson'
I95000
tp3351
sS'gkop'
p3352
(S'https://www.linkedin.com/in/gkopley'
I139000
tp3353
sS'armandocanals'
p3354
(S'https://www.linkedin.com/in/armando-canals-16252a8'
I126000
tp3355
sS'Andrew-McLeod'
p3356
(S'https://www.linkedin.com/in/andrew-mcleod'
I57000
tp3357
sS'JvalantPatel'
p3358
(S'https://www.linkedin.com/in/jvalantpatel'
I142000
tp3359
sS'tschuy'
p3360
(S'https://www.linkedin.com/in/evan-tschuy-45412876'
I92000
tp3361
sS'nym'
p3362
(S'https://www.linkedin.com/in/tomlongson'
I100000
tp3363
sS'bakineggs'
p3364
(S'https://www.linkedin.com/in/bakineggs'
I57000
tp3365
sS'dav'
p3366
(S'https://www.linkedin.com/in/davyaginuma'
I150000
tp3367
sS'crocha700'
p3368
(S'https://www.linkedin.com/in/francisco-cesar-b-rocha-0317a669'
I71000
tp3369
sS'mattdot'
p3370
(S'https://www.linkedin.com/in/mattdot'
I62000
tp3371
sS'kenkouot'
p3372
(S'https://www.linkedin.com/in/kenkouot'
I121000
tp3373
sS'dannyrich'
p3374
(S'https://www.linkedin.com/in/danny-richelieu-15b5067'
I102000
tp3375
sS'vtsvang'
p3376
(S'https://www.linkedin.com/in/tsvang'
I136000
tp3377
sS'gyakovlev'
p3378
(S'https://www.linkedin.com/in/georgy-yakovlev-047462108'
I153000
tp3379
sS'glasser'
p3380
(S'https://www.linkedin.com/in/dglasser'
I77000
tp3381
sS'friscomm'
p3382
(S'https://www.linkedin.com/in/frisco-miranda-255b1a70'
I92000
tp3383
sS'deloschang'
p3384
(S'https://www.linkedin.com/in/delos-chang-72567329'
I126000
tp3385
sS'coxley'
p3386
(S'https://www.linkedin.com/in/codey-oxley-15187555'
I120000
tp3387
sS'hoisie'
p3388
(S'https://www.linkedin.com/in/hoisie'
I140000
tp3389
sS'benjolitz'
p3390
(S'https://www.linkedin.com/in/ben-jolitz-a66a0710'
I136000
tp3391
sS'stephentu'
p3392
(S'https://www.linkedin.com/in/stephen7tu'
I77000
tp3393
sS'jwoolston'
p3394
(S'https://www.linkedin.com/in/jwoolston'
I50000
tp3395
sS'billyvg'
p3396
(S'https://www.linkedin.com/in/billyvong'
I57000
tp3397
sS'TylerLubeck'
p3398
(S'https://www.linkedin.com/in/tylerlubeck'
I94000
tp3399
sS'gpatuwo'
p3400
(S'https://www.linkedin.com/in/gracepatuwo'
I96000
tp3401
sS'ilblackdragon'
p3402
(S'https://www.linkedin.com/in/illia-polosukhin-77b6538'
I130000
tp3403
sS'daltus'
p3404
(S'https://www.linkedin.com/in/daltonpetursson'
I109000
tp3405
sS'jmathai'
p3406
(S'https://www.linkedin.com/in/jaisenmathai'
I133000
tp3407
sS'armon'
p3408
(S'https://www.linkedin.com/in/armon-dadgar-69781214'
I139000
tp3409
sS'selbyk'
p3410
(S'https://www.linkedin.com/in/selby-kendrick-65028950'
I165000
tp3411
sS'kingstenbanh'
p3412
(S'https://www.linkedin.com/in/kingsten'
I22000
tp3413
sS'dgoradia'
p3414
(S'https://www.linkedin.com/in/dgoradia'
I98000
tp3415
sS'guyht'
p3416
(S'https://www.linkedin.com/in/guy-halford-thompson-41592442'
I70000
tp3417
sS'cdeeter'
p3418
(S'https://www.linkedin.com/in/celiadeeter'
I126000
tp3419
sS'jmckible'
p3420
(S'https://www.linkedin.com/in/jmckible'
I126000
tp3421
sS'amiri'
p3422
(S'https://www.linkedin.com/in/amiribarksdale'
I110000
tp3423
sS'zaletniy'
p3424
(S'https://www.linkedin.com/in/ilyasviridov'
I136000
tp3425
sS'smurthas'
p3426
(S'https://www.linkedin.com/in/smurthas'
I125000
tp3427
sS'zshannon'
p3428
(S'https://www.linkedin.com/in/zaneshannon'
I139000
tp3429
sS'kevinschaich'
p3430
(S'https://www.linkedin.com/in/kevinschaich'
I44000
tp3431
sS'taganaka'
p3432
(S'https://www.linkedin.com/in/francescolaurita'
I94000
tp3433
sS'collenjones'
p3434
(S'https://www.linkedin.com/in/collenjones'
I77000
tp3435
sS'jdcrensh'
p3436
(S'https://www.linkedin.com/in/jdcrensh'
I79000
tp3437
sS'josemarluedke'
p3438
(S'https://www.linkedin.com/in/josemarluedke'
I104000
tp3439
sS'jthurst01'
p3440
(S'https://www.linkedin.com/in/jthurst'
I123000
tp3441
sS'giladgray'
p3442
(S'https://www.linkedin.com/in/giladgray'
I153000
tp3443
sS'rzeng95'
p3444
(S'https://www.linkedin.com/in/rzeng95'
I62000
tp3445
sS'bjorg'
p3446
(S'https://www.linkedin.com/in/bjorg'
I57000
tp3447
sS'jluchiji'
p3448
(S'https://www.linkedin.com/in/dluchkinzhou'
I95000
tp3449
sS'Ltspringthorpe'
p3450
(S'https://www.linkedin.com/in/leannespringthorpe'
I95000
tp3451
sS'levbrie'
p3452
(S'https://www.linkedin.com/in/levbrie'
I75000
tp3453
sS'theonlyjames'
p3454
(S'https://www.linkedin.com/in/jameskhatiblou'
I136000
tp3455
sS'alexrudy'
p3456
(S'https://www.linkedin.com/in/alexrudy'
I44000
tp3457
sS'woodie'
p3458
(S'https://www.linkedin.com/in/woodie'
I140000
tp3459
sS'michaelrbock'
p3460
(S'https://www.linkedin.com/in/michaelrbock'
I142000
tp3461
sS'lukebayes'
p3462
(S'https://www.linkedin.com/in/lukebayes'
I116000
tp3463
sS'cbrazil'
p3464
(S'https://www.linkedin.com/in/callie-brazil-a693a639'
I43000
tp3465
sS'Daniel15'
p3466
(S'https://www.linkedin.com/in/daniel15'
I132000
tp3467
sS'dyno'
p3468
(S'https://www.linkedin.com/in/dynofu'
I100000
tp3469
sS'steel'
p3470
(S'https://www.linkedin.com/in/steel-fu-a18b647'
I136000
tp3471
sS'vasilionjea'
p3472
(S'https://www.linkedin.com/in/billyonjea'
I136000
tp3473
sS'mattlevan'
p3474
(S'https://www.linkedin.com/in/mattlevan'
I57000
tp3475
sS'swetland'
p3476
(S'https://www.linkedin.com/in/swetland'
I101000
tp3477
sS'grempe'
p3478
(S'https://www.linkedin.com/in/grempe'
I77000
tp3479
sS'slacy'
p3480
(S'https://www.linkedin.com/in/slacy'
I142000
tp3481
sS'stouset'
p3482
(S'https://www.linkedin.com/in/stouset'
I100000
tp3483
sS'davidanthoff'
p3484
(S'https://www.linkedin.com/in/davidanthoff'
I93000
tp3485
sS'jkriss'
p3486
(S'https://www.linkedin.com/in/jkriss'
I136000
tp3487
sS'tbatchelli'
p3488
(S'https://www.linkedin.com/in/tbatchelli'
I150000
tp3489
sS'tynril'
p3490
(S'https://www.linkedin.com/in/samuelloretan'
I105000
tp3491
sS'edouardswiac'
p3492
(S'https://www.linkedin.com/in/edouardswiac'
I139000
tp3493
sS'drewbrokke'
p3494
(S'https://www.linkedin.com/in/drew-brokke-284b6726'
I71000
tp3495
sS'sgravitz'
p3496
(S'https://www.linkedin.com/in/sgravitz'
I71000
tp3497
sS'nanaze'
p3498
(S'https://www.linkedin.com/in/nanaze'
I142000
tp3499
sS'mikemccabe'
p3500
(S'https://www.linkedin.com/in/mikemccabe1'
I153000
tp3501
sS'oliverpaisley'
p3502
(S'https://www.linkedin.com/in/oliverpaisley'
I77000
tp3503
sS'kristw'
p3504
(S'https://www.linkedin.com/in/krist-wongsuphasawat-279b1617'
I98000
tp3505
sS'erikvanzijst'
p3506
(S'https://www.linkedin.com/in/erikvanzijst'
I178000
tp3507
sS'parkr'
p3508
(S'https://www.linkedin.com/in/parkr'
I136000
tp3509
sS'CClerville'
p3510
(S'https://www.linkedin.com/in/chris-clerville-08030029'
I126000
tp3511
sS'ztratar'
p3512
(S'https://www.linkedin.com/in/zachtratar'
I75000
tp3513
sS'dglazkov'
p3514
(S'https://www.linkedin.com/in/dglazkov'
I140000
tp3515
sS'fxstein'
p3516
(S'https://www.linkedin.com/in/ratzesberger'
I145000
tp3517
sS'brntbeer'
p3518
(S'https://www.linkedin.com/in/brntbeer'
I43000
tp3519
sS'scazan'
p3520
(S'https://www.linkedin.com/in/scott-cazan-b02bb62b'
I100000
tp3521
sS'manos'
p3522
(S'https://www.linkedin.com/in/charlieschluting'
I95000
tp3523
sS'mpharrigan'
p3524
(S'https://www.linkedin.com/in/mharrigan'
I57000
tp3525
sS'nicknovitski'
p3526
(S'https://www.linkedin.com/in/nicknovitski'
I71000
tp3527
sS'jackzampolin'
p3528
(S'https://www.linkedin.com/in/jackzampolin'
I134000
tp3529
sS'kickinbahk'
p3530
(S'https://www.linkedin.com/in/josiahmory'
I68000
tp3531
sS'SGColdSun'
p3532
(S'https://www.linkedin.com/in/coldsun-led-8b301270'
I67000
tp3533
sS'dhananjay92'
p3534
(S'https://www.linkedin.com/in/dhananjaynakrani'
I149000
tp3535
sS'ChristopherMacGown'
p3536
(S'https://www.linkedin.com/in/christopher-macgown-42a40124'
I130000
tp3537
sS'loudnate'
p3538
(S'https://www.linkedin.com/in/nathanracklyeft'
I134000
tp3539
sS'flipcoder'
p3540
(S'https://www.linkedin.com/in/gradyoconnell'
I113000
tp3541
sS'bretep'
p3542
(S'https://www.linkedin.com/in/bretep'
I152000
tp3543
sS'parasyte'
p3544
(S'https://www.linkedin.com/in/jay-oster-4b0b0430'
I139000
tp3545
sS'Marcinthecloud'
p3546
(S'https://www.linkedin.com/in/marc-selwan-088a7342'
I118000
tp3547
sS'kyleludlow'
p3548
(S'https://www.linkedin.com/in/kyleludlow'
I43000
tp3549
sS'aneilbaboo'
p3550
(S'https://www.linkedin.com/in/amallavarapu'
I139000
tp3551
sS'fstltna'
p3552
(S'https://www.linkedin.com/in/marisagiancarla'
I136000
tp3553
sS'MichaelRevell'
p3554
(S'https://www.linkedin.com/in/michaelrevell'
I101000
tp3555
sS'DEGoodmanWilson'
p3556
(S'https://www.linkedin.com/in/degoodmanwilson'
I136000
tp3557
sS'Stuk'
p3558
(S'https://www.linkedin.com/in/stuartknightley'
I136000
tp3559
sS'KyleLeneau'
p3560
(S'https://www.linkedin.com/in/kleneau'
I108000
tp3561
sS'gtrevg'
p3562
(S'https://www.linkedin.com/in/trevorgattis'
I157000
tp3563
sS'cramforce'
p3564
(S'https://www.linkedin.com/in/malteubl'
I125000
tp3565
sS'rosslebeau'
p3566
(S'https://www.linkedin.com/in/rosslebeau'
I136000
tp3567
sS'zap-rowsdower'
p3568
(S'https://www.linkedin.com/in/brockwhitbread'
I75000
tp3569
sS'Interrupt'
p3570
(S'https://www.linkedin.com/in/chadcuddigan'
I139000
tp3571
sS'gsmcwhirter'
p3572
(S'https://www.linkedin.com/in/gsmcwhirter'
I79000
tp3573
sS'jcmvbkbc'
p3574
(S'https://www.linkedin.com/in/jcmvbkbc'
I150000
tp3575
sS'Veraxus'
p3576
(S'https://www.linkedin.com/in/mattvanandel'
I71000
tp3577
sS'sheganinans'
p3578
(S'https://www.linkedin.com/in/aistisraulinaitis'
I105000
tp3579
sS'bwinkers'
p3580
(S'https://www.linkedin.com/in/bwinkers'
I115000
tp3581
sS'coreyramirezgomez'
p3582
(S'https://www.linkedin.com/in/coreyramirezgomez'
I76000
tp3583
sS'ajaska'
p3584
(S'https://www.linkedin.com/in/ajaska'
I115000
tp3585
sS'patrick-armitage'
p3586
(S'https://www.linkedin.com/in/patrickarmitage'
I51000
tp3587
sS'pancham348'
p3588
(S'https://www.linkedin.com/in/pmehru'
I95000
tp3589
sS'kishkaru'
p3590
(S'https://www.linkedin.com/in/kishkaru'
I57000
tp3591
sS'kyoro'
p3592
(S'https://www.linkedin.com/in/kyoro'
I77000
tp3593
sS'tleach'
p3594
(S'https://www.linkedin.com/in/teleach'
I133000
tp3595
sS'dpc'
p3596
(S'https://www.linkedin.com/in/dawidc'
I100000
tp3597
sS'Nick-Brennan'
p3598
(S'https://www.linkedin.com/in/nickdbrennan'
I102000
tp3599
sS'daneden'
p3600
(S'https://www.linkedin.com/in/daneden'
I62000
tp3601
sS'jsdelfino'
p3602
(S'https://www.linkedin.com/in/jsdelfino'
I140000
tp3603
sS'phillipjohnston'
p3604
(S'https://www.linkedin.com/in/phillipjohnston1'
I99000
tp3605
sS'ccrazy88'
p3606
(S'https://www.linkedin.com/in/chrisna'
I136000
tp3607
sS'pramodsetlur'
p3608
(S'https://www.linkedin.com/in/pramodsetlur'
I76000
tp3609
sS'shillcock'
p3610
(S'https://www.linkedin.com/in/shillcock'
I73000
tp3611
sS'joebalancio'
p3612
(S'https://www.linkedin.com/in/josephbalancio'
I126000
tp3613
sS'jacobkossman'
p3614
(S'https://www.linkedin.com/in/jacobkossman'
I94000
tp3615
sS'rkitover'
p3616
(S'https://www.linkedin.com/in/rafael-kitover-392b082'
I75000
tp3617
sS'chorankates'
p3618
(S'https://www.linkedin.com/in/chorankates'
I84000
tp3619
sS'goldibex'
p3620
(S'https://www.linkedin.com/in/goldibex'
I116000
tp3621
sS'balajikvijayan'
p3622
(S'https://www.linkedin.com/in/balajivijayan'
I57000
tp3623
sS'jandrieu'
p3624
(S'https://www.linkedin.com/in/joe-andrieu-a0528'
I71000
tp3625
sS'Blackshawk'
p3626
(S'https://www.linkedin.com/in/jarrodnettles'
I109000
tp3627
sS'mariash'
p3628
(S'https://www.linkedin.com/in/mariashaldibina'
I150000
tp3629
sS'sankargorthi'
p3630
(S'https://www.linkedin.com/in/sankargorthi'
I155000
tp3631
sS'yeshodhan'
p3632
(S'https://www.linkedin.com/in/yeshodhan'
I145000
tp3633
sS'swbiggart'
p3634
(S'https://www.linkedin.com/in/scott-woolsey-biggart-b3b4356'
I97000
tp3635
sS'wnadeau'
p3636
(S'https://www.linkedin.com/in/winfrednadeau'
I95000
tp3637
sS'Kooshaba'
p3638
(S'https://www.linkedin.com/in/andycernera'
I136000
tp3639
sS'colinskow'
p3640
(S'https://www.linkedin.com/in/colinskow'
I57000
tp3641
sS'sterlingbaldwin'
p3642
(S'https://www.linkedin.com/in/sterlingbaldwin'
I112000
tp3643
sS'Moocar'
p3644
(S'https://www.linkedin.com/in/anthonymarcar'
I71000
tp3645
sS'Holyoke'
p3646
(S'https://www.linkedin.com/in/jasonebueng'
I95000
tp3647
sS'ChetHarrison'
p3648
(S'https://www.linkedin.com/in/chetharrison'
I71000
tp3649
sS'lavelle'
p3650
(S'https://www.linkedin.com/in/glavelle'
I143000
tp3651
sS'aneesh-neelam'
p3652
(S'https://www.linkedin.com/in/aneeshneelam'
I57000
tp3653
sS'abdullahaalam'
p3654
(S'https://www.linkedin.com/in/abdullahaalam'
I57000
tp3655
sS'kbendick'
p3656
(S'https://www.linkedin.com/in/kylebendickson'
I76000
tp3657
sS'netpro2k'
p3658
(S'https://www.linkedin.com/in/ddaniello'
I126000
tp3659
sS'mikejihbe'
p3660
(S'https://www.linkedin.com/in/mike-ihbe-a356694'
I101000
tp3661
sS'BretStateham'
p3662
(S'https://www.linkedin.com/in/bstateham'
I102000
tp3663
sS'kimsk'
p3664
(S'https://www.linkedin.com/in/karlkim-suwanmongkol-11b8947'
I148000
tp3665
sS'robgraeber'
p3666
(S'https://www.linkedin.com/in/robgraeber'
I109000
tp3667
sS'brennan'
p3668
(S'https://www.linkedin.com/in/brennangamwell'
I132000
tp3669
sS'gnestor'
p3670
(S'https://www.linkedin.com/in/grantnestor'
I116000
tp3671
sS'denis'
p3672
(S'https://www.linkedin.com/in/barushev'
I136000
tp3673
sS'mykehsd'
p3674
(S'https://www.linkedin.com/in/mykehines'
I76000
tp3675
sS'kahwee'
p3676
(S'https://www.linkedin.com/in/tengkahwee'
I136000
tp3677
sS'AlexBravo'
p3678
(S'https://www.linkedin.com/in/alesibravo'
I57000
tp3679
sS'alsonkemp'
p3680
(S'https://www.linkedin.com/in/alsonkemp'
I150000
tp3681
sS'schacon'
p3682
(S'https://www.linkedin.com/in/schacon'
I57000
tp3683
sS'at15'
p3684
(S'https://www.linkedin.com/in/at1510086'
I53000
tp3685
sS'charutiwari04'
p3686
(S'https://www.linkedin.com/in/charutiwari04'
I57000
tp3687
sS'jduhamel'
p3688
(S'https://www.linkedin.com/in/jduhamel'
I57000
tp3689
sS'imownbey'
p3690
(S'https://www.linkedin.com/in/ian-ownbey-4aa5ba117'
I129000
tp3691
sS'peterhadlaw'
p3692
(S'https://www.linkedin.com/in/peterhadlaw'
I126000
tp3693
sS'joemeers82'
p3694
(S'https://www.linkedin.com/in/joe-meers-jankowski-5a9b6521'
I96000
tp3695
sS'sholden'
p3696
(S'https://www.linkedin.com/in/snholden'
I150000
tp3697
sS'apokusin'
p3698
(S'https://www.linkedin.com/in/arturpokusin'
I106000
tp3699
sS'sunny-g'
p3700
(S'https://www.linkedin.com/in/sunnygonna'
I109000
tp3701
sS'apati04'
p3702
(S'https://www.linkedin.com/in/apati04'
I75000
tp3703
sS'stpabhi'
p3704
(S'https://www.linkedin.com/in/abhilashstp'
I95000
tp3705
sS'laynemcnish'
p3706
(S'https://www.linkedin.com/in/laynemcnish'
I136000
tp3707
sS'jennikins813'
p3708
(S'https://www.linkedin.com/in/jenniferfollero'
I76000
tp3709
sS'100ideas'
p3710
(S'https://www.linkedin.com/in/macowell'
I37000
tp3711
sS'cjerdonek'
p3712
(S'https://www.linkedin.com/in/chrisjerdonek'
I128000
tp3713
sS'cweider'
p3714
(S'https://www.linkedin.com/in/chadweider'
I136000
tp3715
sS'lsblakk'
p3716
(S'https://www.linkedin.com/in/lukasblakk'
I123000
tp3717
sS'andrewmartin'
p3718
(S'https://www.linkedin.com/in/andrewmartin26'
I82000
tp3719
sS'andrewhead'
p3720
(S'https://www.linkedin.com/in/andrewhao'
I102000
tp3721
sS'bluefeet'
p3722
(S'https://www.linkedin.com/in/bluefeet'
I104000
tp3723
sS'gweinert'
p3724
(S'https://www.linkedin.com/in/garrettweinert'
I75000
tp3725
sS'yifange'
p3726
(S'https://www.linkedin.com/in/yifange'
I142000
tp3727
sS'qwzybug'
p3728
(S'https://www.linkedin.com/in/devin-chalmers-b386a319'
I102000
tp3729
sS'joshwalters'
p3730
(S'https://www.linkedin.com/in/joshmwalters'
I76000
tp3731
sS'archit'
p3732
(S'https://www.linkedin.com/in/baweja'
I132000
tp3733
sS'delqn'
p3734
(S'https://www.linkedin.com/in/delqn'
I57000
tp3735
sS'bridgpal'
p3736
(S'https://www.linkedin.com/in/bridgpal'
I174000
tp3737
sS'AnalogJ'
p3738
(S'https://www.linkedin.com/in/jason-kulatunga-33738211'
I138000
tp3739
sS'dataxpress'
p3740
(S'https://www.linkedin.com/in/tim-gostony-b46a2a64'
I22000
tp3741
sS'toshok'
p3742
(S'https://www.linkedin.com/in/chris-toshok-6336541'
I95000
tp3743
sS'kzahel'
p3744
(S'https://www.linkedin.com/in/kylegraehl'
I139000
tp3745
sS'JustinLovesCompsci'
p3746
(S'https://www.linkedin.com/in/justinzhangduke'
I136000
tp3747
sS'nhodges'
p3748
(S'https://www.linkedin.com/in/nurihodges'
I142000
tp3749
sS'zpinter'
p3750
(S'https://www.linkedin.com/in/zpinter'
I123000
tp3751
sS'jameskyle'
p3752
(S'https://www.linkedin.com/in/jamesfkyle1'
I57000
tp3753
sS'toadkicker'
p3754
(S'https://www.linkedin.com/in/toadkicker'
I57000
tp3755
sS'neovintage'
p3756
(S'https://www.linkedin.com/in/rimassilkaitis'
I136000
tp3757
sS'whitmanc'
p3758
(S'https://www.linkedin.com/in/cwhitman8'
I102000
tp3759
sS'cimbriano'
p3760
(S'https://www.linkedin.com/in/christopherimbriano'
I123000
tp3761
sS'alexmattingley'
p3762
(S'https://www.linkedin.com/in/alex-mattingley-8b627a22'
I72000
tp3763
sS'cyzhao'
p3764
(S'https://www.linkedin.com/in/czhao'
I57000
tp3765
sS'muratozgul'
p3766
(S'https://www.linkedin.com/in/muratozgul'
I81000
tp3767
sS'mattcano'
p3768
(S'https://www.linkedin.com/in/mattcano'
I62000
tp3769
sS'jsealey'
p3770
(S'https://www.linkedin.com/in/jaredsealey'
I102000
tp3771
sS'dain'
p3772
(S'https://www.linkedin.com/in/dainsundstrom'
I95000
tp3773
sS'brokenfingers'
p3774
(S'https://www.linkedin.com/in/hyun-sik-kang-17807653'
I107000
tp3775
sS'taylorleh'
p3776
(S'https://www.linkedin.com/in/taylorleh'
I20000
tp3777
sS'xeb'
p3778
(S'https://www.linkedin.com/in/mark-kockerbeck-40769759'
I71000
tp3779
sS'sammilechman'
p3780
(S'https://www.linkedin.com/in/sam-milechman-88237224'
I136000
tp3781
sS'saams4u'
p3782
(S'https://www.linkedin.com/in/saamahnmahjouri'
I127000
tp3783
sS'KlyanYosan'
p3784
(S'https://www.linkedin.com/in/andreyklyuchka'
I130000
tp3785
sS'johnw188'
p3786
(S'https://www.linkedin.com/in/johnw188'
I65000
tp3787
sS'fouad'
p3788
(S'https://www.linkedin.com/in/fouadmatin'
I79000
tp3789
sS'jalaziz'
p3790
(S'https://www.linkedin.com/in/jalaziz'
I136000
tp3791
sS'gokul-raghuraman'
p3792
(S'https://www.linkedin.com/in/gokulraghuraman'
I88000
tp3793
sS'MateusZitelli'
p3794
(S'https://www.linkedin.com/in/mateus-zitelli-5ba0253a'
I46000
tp3795
sS'arangamani'
p3796
(S'https://www.linkedin.com/in/arangamani'
I87000
tp3797
sS'henrik-muehe'
p3798
(S'https://www.linkedin.com/in/henrikmuehe'
I140000
tp3799
sS'onkarganjewar'
p3800
(S'https://www.linkedin.com/in/onkarganjewar'
I100000
tp3801
sS'jlipps'
p3802
(S'https://www.linkedin.com/in/jlipps'
I102000
tp3803
sS'chexee'
p3804
(S'https://www.linkedin.com/in/cotakan'
I123000
tp3805
sS'alexkehayias'
p3806
(S'https://www.linkedin.com/in/alexkehayias'
I220000
tp3807
sS'winnietong'
p3808
(S'https://www.linkedin.com/in/winnietong'
I130000
tp3809
sS'rzurad'
p3810
(S'https://www.linkedin.com/in/richardzurad'
I105000
tp3811
sS'pikeas'
p3812
(S'https://www.linkedin.com/in/pikeas'
I136000
tp3813
sS'dovekie'
p3814
(S'https://www.linkedin.com/in/dovekie'
I57000
tp3815
sS'BardiaAfshin'
p3816
(S'https://www.linkedin.com/in/bardiaafshin'
I62000
tp3817
sS'ctweney'
p3818
(S'https://www.linkedin.com/in/ctweney'
I98000
tp3819
sS'shazow'
p3820
(S'https://www.linkedin.com/in/shazow'
I57000
tp3821
sS'seansu4you87'
p3822
(S'https://www.linkedin.com/in/seansu4you87'
I154000
tp3823
sS'lyzidiamond'
p3824
(S'https://www.linkedin.com/in/lyzidiamond'
I79000
tp3825
sS'siggy'
p3826
(S'https://www.linkedin.com/in/andrewseigner'
I126000
tp3827
sS'ajritch'
p3828
(S'https://www.linkedin.com/in/andrea-ritch'
I134000
tp3829
sS'evanshortiss'
p3830
(S'https://www.linkedin.com/in/evan-shortiss-1018a240'
I117000
tp3831
sS'frodenas'
p3832
(S'https://www.linkedin.com/in/frodenas'
I74000
tp3833
sS'VasiliyRodin'
p3834
(S'https://www.linkedin.com/in/vasiliyrodin'
I102000
tp3835
sS'mgadda'
p3836
(S'https://www.linkedin.com/in/mgadda'
I123000
tp3837
sS'bradurani'
p3838
(S'https://www.linkedin.com/in/bradurani'
I82000
tp3839
sS'ericjohnston1989'
p3840
(S'https://www.linkedin.com/in/ericjohnstonms'
I92000
tp3841
sS'ctcherry'
p3842
(S'https://www.linkedin.com/in/chcherry'
I67000
tp3843
sS'bryceredd'
p3844
(S'https://www.linkedin.com/in/bryce-redd-ba45861b'
I102000
tp3845
sS'gsquire'
p3846
(S'https://www.linkedin.com/in/garrettsquire'
I109000
tp3847
sS'huyhong'
p3848
(S'https://www.linkedin.com/in/huyhong'
I161000
tp3849
sS'davidmarin'
p3850
(S'https://www.linkedin.com/in/davidhmarin'
I53000
tp3851
sS'skotzko'
p3852
(S'https://www.linkedin.com/in/andrewskotzko'
I76000
tp3853
sS'MartyMacGyver'
p3854
(S'https://www.linkedin.com/in/martinfalatic'
I95000
tp3855
sS'srahim'
p3856
(S'https://www.linkedin.com/in/sabilrahim'
I136000
tp3857
sS'JoshuaSP'
p3858
(S'https://www.linkedin.com/in/joshuasp'
I57000
tp3859
sS'JonAbrams'
p3860
(S'https://www.linkedin.com/in/jabrams'
I39000
tp3861
sS'mhluska'
p3862
(S'https://www.linkedin.com/in/mhluska'
I151000
tp3863
sS'raxityo'
p3864
(S'https://www.linkedin.com/in/raxityo'
I144000
tp3865
sS'Wilbeibi'
p3866
(S'https://www.linkedin.com/in/wilbeibi'
I135000
tp3867
sS'stakes'
p3868
(S'https://www.linkedin.com/in/jaystakelon'
I125000
tp3869
sS'yalcindo'
p3870
(S'https://www.linkedin.com/in/yalcindo'
I107000
tp3871
sS'pagebrooks'
p3872
(S'https://www.linkedin.com/in/pagebrooks'
I57000
tp3873
sS'vnataraj'
p3874
(S'https://www.linkedin.com/in/vipuln'
I95000
tp3875
sS'klueska'
p3876
(S'https://www.linkedin.com/in/klueska'
I126000
tp3877
sS'tstullich'
p3878
(S'https://www.linkedin.com/in/timstullich'
I136000
tp3879
sS'danishkhan'
p3880
(S'https://www.linkedin.com/in/danishkhan081'
I71000
tp3881
sS'cantino'
p3882
(S'https://www.linkedin.com/in/cantino'
I95000
tp3883
sS'ceruleanotter'
p3884
(S'https://www.linkedin.com/in/lylafujiwara'
I144000
tp3885
sS'jesseward'
p3886
(S'https://www.linkedin.com/in/sjesseward'
I26000
tp3887
sS'davidchiles'
p3888
(S'https://www.linkedin.com/in/davidchiles'
I57000
tp3889
sS'bbeaird'
p3890
(S'https://www.linkedin.com/in/brantleybeaird'
I96000
tp3891
sS'holdenk'
p3892
(S'https://www.linkedin.com/in/holdenkarau'
I140000
tp3893
sS'mnemnion'
p3894
(S'https://www.linkedin.com/in/sam-atman-3a2a0921'
I71000
tp3895
sS'kevinfan23'
p3896
(S'https://www.linkedin.com/in/zixuan-kevin-fan-85492226'
I94000
tp3897
sS'carlbernardo'
p3898
(S'https://www.linkedin.com/in/carlbernardo'
I123000
tp3899
sS'aldeka'
p3900
(S'https://www.linkedin.com/in/krustad'
I98000
tp3901
sS'evantzhao'
p3902
(S'https://www.linkedin.com/in/evanzhao'
I79000
tp3903
sS'njdup'
p3904
(S'https://www.linkedin.com/in/nicholasdupoux'
I172000
tp3905
sS'johnboiles'
p3906
(S'https://www.linkedin.com/in/johnboiles'
I104000
tp3907
sS'dotku'
p3908
(S'https://www.linkedin.com/in/weijingjaylin'
I129000
tp3909
sS'skotturi'
p3910
(S'https://www.linkedin.com/in/sante-kotturi-17735546'
I46000
tp3911
sS'dustMason'
p3912
(S'https://www.linkedin.com/in/jordan-sitkin-0ab77324'
I136000
tp3913
sS'duro'
p3914
(S'https://www.linkedin.com/in/adamduro'
I99000
tp3915
sS'xtiancapil'
p3916
(S'https://www.linkedin.com/in/christiancapil'
I102000
tp3917
sS'DevinMui'
p3918
(S'https://www.linkedin.com/in/devinmui'
I95000
tp3919
sS'mikelblake'
p3920
(S'https://www.linkedin.com/in/mikelblake'
I110000
tp3921
sS'marcelchastain'
p3922
(S'https://www.linkedin.com/in/marcelchastain'
I76000
tp3923
sS'Adlai-Holler'
p3924
(S'https://www.linkedin.com/in/adlai-holler-ab87b438'
I174000
tp3925
sS'tjarratt'
p3926
(S'https://www.linkedin.com/in/timjarratt'
I67000
tp3927
sS'j9recurses'
p3928
(S'https://www.linkedin.com/in/janineheiser'
I156000
tp3929
sS'marcusguttenplan'
p3930
(S'https://www.linkedin.com/in/marcus-guttenplan-371410115'
I63000
tp3931
sS'bananatron'
p3932
(S'https://www.linkedin.com/in/spenser-coke-b224a36b'
I137000
tp3933
sS'brendannee'
p3934
(S'https://www.linkedin.com/in/brendannee'
I77000
tp3935
sS'aliatsis'
p3936
(S'https://www.linkedin.com/in/anthonyliatsis'
I136000
tp3937
sS'tjgrathwell'
p3938
(S'https://www.linkedin.com/in/travisgrathwell'
I122000
tp3939
sS'AaronJuarez'
p3940
(S'https://www.linkedin.com/in/aaron-juarez'
I57000
tp3941
sS'jameswhiteman'
p3942
(S'https://www.linkedin.com/in/jameswhiteman'
I51000
tp3943
sS'StoneCypher'
p3944
(S'https://www.linkedin.com/in/johnhaugeland'
I136000
tp3945
sS'jaykz52'
p3946
(S'https://www.linkedin.com/in/jasonkozemczak'
I96000
tp3947
sS'spence'
p3948
(S'https://www.linkedin.com/in/spencercreasey'
I121000
tp3949
sS'Ryan-McBride'
p3950
(S'https://www.linkedin.com/in/ryanpmcbride'
I89000
tp3951
sS'paulshen'
p3952
(S'https://www.linkedin.com/in/paulshen0'
I57000
tp3953
sS'escherba'
p3954
(S'https://www.linkedin.com/in/scherba'
I157000
tp3955
sS'jemiahlee'
p3956
(S'https://www.linkedin.com/in/jemiahlee'
I77000
tp3957
sS'swerwath'
p3958
(S'https://www.linkedin.com/in/scott-werwath-969141104'
I106000
tp3959
sS'gmoothart'
p3960
(S'https://www.linkedin.com/in/gabe-moothart-42205819'
I105000
tp3961
sS'philipn'
p3962
(S'https://www.linkedin.com/in/philip-neustrom-1505a067'
I109000
tp3963
s.