(dp1
Valena1108
p2
(lp3
I6
aI24
aI1
aI2
asVwmathurin
p4
(lp5
I0
aI15
aI0
aI0
asVMrBenJ
p6
(lp7
I6
aI32
aI1
aI0
asVnramadas
p8
(lp9
I3
aI10
aI2
aI1
asVdwabyick
p10
(lp11
I4
aI31
aI2
aI0
asVcooperq
p12
(lp13
I1
aI0
aI0
aI0
asVrv-kip
p14
(lp15
I9
aI26
aI0
aI0
asVnicolaka
p16
(lp17
I5
aI44
aI1
aI0
asVmash99
p18
(lp19
I0
aI0
aI0
aI0
asVphoenixeliot
p20
(lp21
I2
aI14
aI2
aI1
asVgpapilion
p22
(lp23
I11
aI13
aI0
aI0
asVsprjr
p24
(lp25
I7
aI22
aI1
aI2
asVatomiccc
p26
(lp27
I10
aI49
aI2
aI0
asVKeita1
p28
(lp29
I1
aI50
aI5
aI0
asVmattfxyz
p30
(lp31
I6
aI0
aI2
aI0
asVzacharyvoase
p32
(lp33
I4
aI0
aI0
aI0
asVfusion94
p34
(lp35
I14
aI29
aI0
aI2
asV11xor6
p36
(lp37
I8
aI24
aI0
aI0
asVstefanlasiewski
p38
(lp39
I6
aI38
aI2
aI1
asVbuholzer
p40
(lp41
I1
aI50
aI0
aI0
asVmintindeed
p42
(lp43
I9
aI30
aI0
aI2
asVapastewk
p44
(lp45
I3
aI24
aI5
aI1
asVkaiserken
p46
(lp47
I2
aI9
aI1
aI0
asVjgowdy
p48
(lp49
I3
aI43
aI1
aI1
asVindragiek
p50
(lp51
I7
aI19
aI1
aI3
asVrossdylan
p52
(lp53
I5
aI19
aI3
aI2
asVteachrdan
p54
(lp55
I8
aI48
aI6
aI2
asVwonjohnchoi
p56
(lp57
I5
aI15
aI2
aI0
asVshubhamvadhera
p58
(lp59
I0
aI0
aI2
aI0
asVkharland
p60
(lp61
I5
aI8
aI1
aI0
asVaspyker
p62
(lp63
I12
aI30
aI1
aI2
asVjustinthareja
p64
(lp65
I6
aI33
aI4
aI0
asVaaronblohowiak
p66
(lp67
I9
aI21
aI1
aI0
asVjosneville
p68
(lp69
I7
aI28
aI2
aI1
asVslurmulon
p70
(lp71
I4
aI40
aI1
aI1
asVolmectech
p72
(lp73
I5
aI27
aI1
aI0
asVaristiden7o
p74
(lp75
I0
aI0
aI0
aI0
asVjshiv
p76
(lp77
I6
aI34
aI1
aI0
asVkozlitinaelja
p78
(lp79
I3
aI24
aI1
aI0
asVjtzemp
p80
(lp81
I10
aI50
aI2
aI0
asVbukzor
p82
(lp83
I3
aI7
aI2
aI0
asVSamanthaRadocchia
p84
(lp85
I6
aI44
aI5
aI3
asVjdunck
p86
(lp87
I0
aI23
aI0
aI0
asVsecobarbital
p88
(lp89
I8
aI0
aI2
aI0
asVranmizu
p90
(lp91
I2
aI0
aI2
aI0
asVDansajjad
p92
(lp93
I3
aI43
aI1
aI2
asVethanp
p94
(lp95
I6
aI15
aI2
aI0
asVaks
p96
(lp97
I9
aI50
aI1
aI1
asVirabinovitch
p98
(lp99
I13
aI32
aI1
aI0
asVehlertij
p100
(lp101
I5
aI11
aI1
aI0
asVtaylorleese
p102
(lp103
I9
aI22
aI2
aI0
asVrajaraodv
p104
(lp105
I5
aI32
aI2
aI2
asVcchyung
p106
(lp107
I3
aI29
aI2
aI1
asVjonahaga
p108
(lp109
I0
aI31
aI0
aI0
asVEmbeddedLinuxGuy
p110
(lp111
I0
aI21
aI0
aI0
asVwlan0
p112
(lp113
I7
aI11
aI4
aI0
asVbdehamer
p114
(lp115
I8
aI42
aI3
aI0
asVspike
p116
(lp117
I8
aI0
aI1
aI0
asVcraimbert
p118
(lp119
I4
aI0
aI2
aI0
asVEvan-M
p120
(lp121
I6
aI46
aI5
aI0
asVrunningcode
p122
(lp123
I8
aI26
aI3
aI2
asVjkatsnelson
p124
(lp125
I1
aI14
aI2
aI0
asVpcsforeducation
p126
(lp127
I9
aI23
aI3
aI1
asVacoravos
p128
(lp129
I9
aI0
aI3
aI3
asVgreggroth
p130
(lp131
I8
aI31
aI2
aI1
asVaheckmann
p132
(lp133
I10
aI25
aI2
aI3
asVRashmiNalwad
p134
(lp135
I4
aI46
aI3
aI0
asVkilianc
p136
(lp137
I5
aI31
aI1
aI1
asVstevederico
p138
(lp139
I4
aI7
aI1
aI3
asVmtougeron
p140
(lp141
I9
aI36
aI0
aI2
asVaventurella
p142
(lp143
I0
aI0
aI0
aI0
asVbcbroussard
p144
(lp145
I9
aI11
aI1
aI0
asVmichaelleinweaver
p146
(lp147
I1
aI30
aI1
aI2
asVtannermares
p148
(lp149
I5
aI35
aI3
aI1
asVmpemer
p150
(lp151
I1
aI50
aI0
aI3
asVphilelauria
p152
(lp153
I0
aI41
aI0
aI0
asVjeshuaborges
p154
(lp155
I9
aI16
aI1
aI2
asVbrandonaaskov
p156
(lp157
I5
aI23
aI1
aI0
asVsdsunjay
p158
(lp159
I0
aI21
aI0
aI0
asVMeredithU
p160
(lp161
I11
aI30
aI5
aI0
asVjonsagara
p162
(lp163
I12
aI35
aI1
aI1
asVrewonc
p164
(lp165
I6
aI1
aI3
aI0
asVsveinburne
p166
(lp167
I1
aI16
aI5
aI0
asVabadri
p168
(lp169
I7
aI49
aI4
aI0
asVJustinHop
p170
(lp171
I12
aI27
aI1
aI0
asVianserlin
p172
(lp173
I10
aI23
aI3
aI3
asVtkissing
p174
(lp175
I4
aI24
aI2
aI1
asVKyleAsaff
p176
(lp177
I5
aI46
aI1
aI1
asValekstorm
p178
(lp179
I8
aI43
aI2
aI0
asVchemoish
p180
(lp181
I9
aI25
aI2
aI1
asVgregjopa
p182
(lp183
I7
aI11
aI2
aI1
asVjordonwii
p184
(lp185
I3
aI0
aI1
aI0
asVethankennerly
p186
(lp187
I0
aI13
aI0
aI1
asVgterrono
p188
(lp189
I7
aI4
aI2
aI1
asVeideal
p190
(lp191
I6
aI16
aI2
aI0
asVSidneyAllen
p192
(lp193
I0
aI0
aI0
aI0
asVmooeypoo
p194
(lp195
I13
aI43
aI3
aI1
asValunny
p196
(lp197
I1
aI0
aI0
aI0
asVbart20073
p198
(lp199
I9
aI12
aI2
aI0
asVsharadmv
p200
(lp201
I8
aI19
aI3
aI0
asVbreckinloggins
p202
(lp203
I7
aI31
aI2
aI1
asVmattetti
p204
(lp205
I1
aI34
aI0
aI2
asVjonathontoon
p206
(lp207
I9
aI0
aI2
aI0
asVsemipermeable
p208
(lp209
I0
aI26
aI0
aI0
asVpius
p210
(lp211
I5
aI0
aI1
aI2
asVRheaLevine
p212
(lp213
I0
aI0
aI0
aI0
asVdevender
p214
(lp215
I7
aI47
aI2
aI1
asVrachelslaybaugh
p216
(lp217
I1
aI30
aI2
aI0
asVnyergler
p218
(lp219
I9
aI32
aI1
aI0
asV6C1
p220
(lp221
I6
aI46
aI2
aI1
asVsdemjanenko
p222
(lp223
I6
aI15
aI1
aI0
asVjessgrinberg
p224
(lp225
I0
aI0
aI0
aI0
asVfranckverrot
p226
(lp227
I10
aI0
aI2
aI0
asVbriney
p228
(lp229
I7
aI0
aI2
aI0
asVtreindle
p230
(lp231
I1
aI6
aI0
aI0
asVanthonysutardja
p232
(lp233
I7
aI16
aI3
aI2
asVmrorii
p234
(lp235
I0
aI0
aI2
aI0
asVocorso
p236
(lp237
I12
aI46
aI4
aI1
asVjbitely
p238
(lp239
I4
aI19
aI4
aI1
asVwbinnssmith
p240
(lp241
I6
aI28
aI2
aI1
asVbpeynetti
p242
(lp243
I4
aI26
aI3
aI0
asVswolfand
p244
(lp245
I5
aI28
aI2
aI2
asVaatibudhi
p246
(lp247
I5
aI50
aI0
aI0
asVdmi3y
p248
(lp249
I8
aI50
aI1
aI2
asVlozandier
p250
(lp251
I6
aI49
aI5
aI0
asVzetaj
p252
(lp253
I1
aI0
aI0
aI0
asVNoahSaso
p254
(lp255
I1
aI14
aI1
aI0
asVabhiyerra
p256
(lp257
I10
aI27
aI1
aI3
asVkhanukov
p258
(lp259
I8
aI22
aI4
aI0
asVquinnleong
p260
(lp261
I5
aI15
aI3
aI0
asVapranav19
p262
(lp263
I5
aI0
aI0
aI0
asVtoddsifleet
p264
(lp265
I6
aI8
aI3
aI1
asVmbleigh
p266
(lp267
I7
aI16
aI2
aI3
asVsilverjam
p268
(lp269
I0
aI45
aI0
aI0
asVoalders
p270
(lp271
I0
aI41
aI4
aI3
asVpyronicide
p272
(lp273
I0
aI16
aI0
aI0
asVschleimer
p274
(lp275
I8
aI31
aI2
aI0
asVsenica
p276
(lp277
I1
aI23
aI0
aI0
asVfredsharples
p278
(lp279
I7
aI10
aI2
aI0
asVzurawiki
p280
(lp281
I6
aI23
aI2
aI1
asVkbarbary
p282
(lp283
I5
aI13
aI2
aI2
asVsethkinast
p284
(lp285
I0
aI25
aI0
aI0
asVsatorusasozaki
p286
(lp287
I1
aI10
aI3
aI1
asVskaslev
p288
(lp289
I8
aI42
aI3
aI0
asVnaudo
p290
(lp291
I12
aI49
aI1
aI1
asVwordofchristian
p292
(lp293
I9
aI22
aI3
aI1
asVaddisonhuddy
p294
(lp295
I5
aI29
aI4
aI1
asVKandianne
p296
(lp297
I12
aI33
aI2
aI1
asVbobpoekert
p298
(lp299
I3
aI17
aI2
aI0
asVmattbornski
p300
(lp301
I8
aI21
aI2
aI0
asVtritiatimmins
p302
(lp303
I2
aI21
aI3
aI0
asVabhinemani
p304
(lp305
I9
aI50
aI2
aI3
asVripta
p306
(lp307
I10
aI44
aI1
aI1
asVpengkui
p308
(lp309
I4
aI33
aI2
aI0
asVitszero
p310
(lp311
I6
aI50
aI4
aI1
asVmookerji
p312
(lp313
I8
aI15
aI3
aI2
asVarapat
p314
(lp315
I2
aI23
aI2
aI0
asVgabebw
p316
(lp317
I1
aI11
aI0
aI2
asVrazfriman
p318
(lp319
I1
aI36
aI2
aI1
asVGraphicsEmpire
p320
(lp321
I7
aI33
aI2
aI1
asVtropperstyle
p322
(lp323
I1
aI0
aI0
aI0
asVKyleW
p324
(lp325
I8
aI32
aI3
aI1
asVpinheadmz
p326
(lp327
I1
aI27
aI2
aI3
asVvaratep
p328
(lp329
I4
aI50
aI1
aI1
asVvykster
p330
(lp331
I9
aI12
aI2
aI0
asVgerad
p332
(lp333
I12
aI31
aI1
aI0
asVn3wtn9
p334
(lp335
I2
aI5
aI2
aI0
asVCmarl
p336
(lp337
I3
aI17
aI1
aI2
asVekashida
p338
(lp339
I0
aI17
aI0
aI0
asVslonak79
p340
(lp341
I5
aI16
aI2
aI0
asVjmfurlott
p342
(lp343
I7
aI8
aI1
aI2
asVakueisara
p344
(lp345
I3
aI39
aI4
aI0
asVj2kun
p346
(lp347
I9
aI18
aI4
aI1
asVdahmian
p348
(lp349
I5
aI46
aI2
aI0
asVrahulsom
p350
(lp351
I1
aI25
aI1
aI0
asVhoxworth
p352
(lp353
I5
aI25
aI1
aI2
asVsupermarin
p354
(lp355
I6
aI43
aI2
aI2
asVjbobron
p356
(lp357
I6
aI36
aI3
aI0
asVjpulec
p358
(lp359
I4
aI24
aI1
aI1
asVdarinkrauss
p360
(lp361
I11
aI31
aI1
aI0
asVruckus
p362
(lp363
I5
aI0
aI2
aI2
asVhleetwin
p364
(lp365
I0
aI0
aI0
aI0
asVcodahale
p366
(lp367
I7
aI31
aI1
aI2
asVchoxi
p368
(lp369
I3
aI20
aI2
aI0
asVgregghanano
p370
(lp371
I5
aI37
aI3
aI0
asVSherylHohman
p372
(lp373
I1
aI50
aI6
aI1
asVkangkyu
p374
(lp375
I11
aI50
aI9
aI1
asVkwerle
p376
(lp377
I10
aI12
aI1
aI1
asVhynding
p378
(lp379
I12
aI27
aI2
aI3
asVfritzo
p380
(lp381
I0
aI22
aI0
aI0
asVderek
p382
(lp383
I5
aI19
aI1
aI0
asVtsuna
p384
(lp385
I9
aI50
aI3
aI3
asVredcap3000
p386
(lp387
I12
aI17
aI3
aI3
asVcyrusstoller
p388
(lp389
I6
aI18
aI2
aI0
asVrpalcolea
p390
(lp391
I11
aI23
aI4
aI1
asVddgromit
p392
(lp393
I10
aI26
aI2
aI1
asVZorigt
p394
(lp395
I3
aI0
aI2
aI0
asVutako
p396
(lp397
I3
aI24
aI1
aI0
asVayzwah
p398
(lp399
I5
aI10
aI2
aI0
asVvanjikumaran
p400
(lp401
I6
aI50
aI3
aI1
asVevitolins
p402
(lp403
I0
aI29
aI0
aI0
asVpaloobi
p404
(lp405
I6
aI31
aI4
aI0
asVTravelingTechGuy
p406
(lp407
I10
aI50
aI2
aI3
asVWilsonGiese
p408
(lp409
I4
aI11
aI1
aI0
asVwill2357
p410
(lp411
I0
aI35
aI0
aI0
asVlyle
p412
(lp413
I1
aI39
aI0
aI0
asVatoder
p414
(lp415
I0
aI0
aI0
aI0
asVandrewmacheret
p416
(lp417
I1
aI0
aI0
aI0
asVjbussdieker
p418
(lp419
I5
aI50
aI2
aI2
asVChapmanSnowden
p420
(lp421
I10
aI0
aI2
aI0
asVStephanieSpanjian
p422
(lp423
I6
aI39
aI3
aI1
asVmouse-reeve
p424
(lp425
I6
aI16
aI2
aI2
asVdorianpula
p426
(lp427
I7
aI41
aI1
aI3
asVrjurney
p428
(lp429
I18
aI50
aI1
aI3
asViamrudra
p430
(lp431
I7
aI50
aI2
aI0
asVcunnie
p432
(lp433
I0
aI6
aI0
aI0
asVBorgaard
p434
(lp435
I5
aI32
aI2
aI0
asVlaurenbenichou
p436
(lp437
I8
aI38
aI1
aI2
asVadeleinr
p438
(lp439
I4
aI18
aI2
aI1
asVmattmagpayo
p440
(lp441
I0
aI0
aI0
aI1
asVgorakhargosh
p442
(lp443
I5
aI20
aI2
aI0
asVdougshamoo
p444
(lp445
I7
aI50
aI2
aI3
asVlewellyn
p446
(lp447
I2
aI6
aI0
aI0
asVpearl1991
p448
(lp449
I3
aI25
aI1
aI0
asVCfeusier
p450
(lp451
I6
aI0
aI4
aI3
asVstonly
p452
(lp453
I0
aI29
aI0
aI0
asVeveporcello
p454
(lp455
I6
aI21
aI1
aI0
asVtedski
p456
(lp457
I10
aI23
aI0
aI0
asValdb
p458
(lp459
I0
aI0
aI0
aI0
asVyanfali
p460
(lp461
I0
aI38
aI0
aI0
asVprashishh
p462
(lp463
I8
aI17
aI3
aI3
asVhcatlin
p464
(lp465
I8
aI39
aI1
aI1
asVkevinmehall
p466
(lp467
I4
aI0
aI1
aI3
asVkatekligman
p468
(lp469
I0
aI0
aI2
aI0
asVborisfom
p470
(lp471
I6
aI50
aI1
aI1
asVdennybritz
p472
(lp473
I12
aI40
aI2
aI3
asVzorbathut
p474
(lp475
I5
aI16
aI0
aI1
asVhilalh
p476
(lp477
I3
aI12
aI3
aI0
asVosmdawy
p478
(lp479
I4
aI25
aI2
aI1
asVbwainstock
p480
(lp481
I4
aI16
aI1
aI0
asVsarmadbokhari
p482
(lp483
I5
aI27
aI1
aI1
asVdgoradia
p484
(lp485
I5
aI50
aI3
aI0
asVntustison
p486
(lp487
I2
aI16
aI3
aI2
asVanconaesselmann
p488
(lp489
I4
aI49
aI1
aI1
asVmicahbf
p490
(lp491
I1
aI17
aI2
aI2
asVaronysidoro
p492
(lp493
I3
aI7
aI0
aI0
asVrobby
p494
(lp495
I3
aI29
aI1
aI1
asVazymnis
p496
(lp497
I7
aI24
aI4
aI1
asVcse25
p498
(lp499
I1
aI0
aI2
aI0
asVkerrickstaley
p500
(lp501
I4
aI15
aI3
aI0
asVreduxdj
p502
(lp503
I9
aI42
aI1
aI0
asVcarlcrott
p504
(lp505
I4
aI26
aI2
aI1
asVrweald
p506
(lp507
I6
aI26
aI2
aI1
asVbrittkistner
p508
(lp509
I0
aI31
aI3
aI0
asVaswani521
p510
(lp511
I9
aI20
aI2
aI0
asVhondo094
p512
(lp513
I1
aI11
aI2
aI0
asVTannerBaldus
p514
(lp515
I7
aI8
aI3
aI1
asVFedor-Tsyganov
p516
(lp517
I0
aI50
aI2
aI0
asVamikula
p518
(lp519
I13
aI46
aI1
aI0
asVjohnwun
p520
(lp521
I6
aI19
aI1
aI3
asVericflo
p522
(lp523
I9
aI25
aI1
aI2
asVHaloZero
p524
(lp525
I6
aI16
aI1
aI0
asVayust
p526
(lp527
I5
aI9
aI1
aI0
asVjbasalone
p528
(lp529
I10
aI50
aI1
aI1
asVOlivierLD
p530
(lp531
I0
aI15
aI0
aI0
asVcontactkeala
p532
(lp533
I3
aI24
aI2
aI2
asVkakorcal
p534
(lp535
I6
aI23
aI1
aI1
asVluhagel
p536
(lp537
I0
aI15
aI3
aI0
asVjbaudanza
p538
(lp539
I0
aI0
aI0
aI0
asVjasonbot
p540
(lp541
I0
aI22
aI1
aI0
asVdav-
p542
(lp543
I1
aI16
aI1
aI0
asVdtx
p544
(lp545
I6
aI26
aI3
aI0
asVmturquette
p546
(lp547
I1
aI37
aI2
aI3
asVlamielle
p548
(lp549
I7
aI47
aI2
aI1
asVzpencerq
p550
(lp551
I2
aI28
aI1
aI1
asVkirsle
p552
(lp553
I5
aI30
aI2
aI3
asVsmaupin
p554
(lp555
I1
aI15
aI2
aI0
asVbowsersenior
p556
(lp557
I8
aI24
aI4
aI1
asVxaviablaza
p558
(lp559
I3
aI21
aI2
aI0
asVirtefa
p560
(lp561
I9
aI20
aI1
aI1
asVSpenser309
p562
(lp563
I5
aI22
aI3
aI1
asVGabri3l
p564
(lp565
I3
aI21
aI3
aI1
asVsuhasHere
p566
(lp567
I2
aI22
aI2
aI0
asVmaymillerricci
p568
(lp569
I9
aI22
aI1
aI0
asVbelovachap
p570
(lp571
I6
aI10
aI2
aI1
asVszangaro
p572
(lp573
I0
aI33
aI0
aI0
asVlorden
p574
(lp575
I9
aI23
aI1
aI1
asVgnr
p576
(lp577
I5
aI16
aI1
aI3
asVpdo9141
p578
(lp579
I0
aI16
aI0
aI0
asVmicheas
p580
(lp581
I1
aI50
aI1
aI3
asVpauljz
p582
(lp583
I6
aI20
aI1
aI1
asVkasima
p584
(lp585
I14
aI27
aI1
aI0
asVkigster
p586
(lp587
I10
aI50
aI2
aI3
asVuiho
p588
(lp589
I1
aI2
aI2
aI0
asVaplocher
p590
(lp591
I7
aI50
aI0
aI2
asVsyadlowsky
p592
(lp593
I6
aI13
aI3
aI0
asVchasebolt
p594
(lp595
I1
aI16
aI0
aI0
asVoffirgolan
p596
(lp597
I5
aI28
aI2
aI0
asVaia
p598
(lp599
I1
aI0
aI0
aI0
asVkentonv
p600
(lp601
I3
aI17
aI0
aI0
asVnkouevda
p602
(lp603
I4
aI19
aI2
aI3
asVrobustdj
p604
(lp605
I9
aI25
aI1
aI1
asVbriannanoland
p606
(lp607
I8
aI21
aI2
aI0
asVnligon
p608
(lp609
I2
aI43
aI3
aI0
asVhanschun
p610
(lp611
I0
aI0
aI0
aI0
asVljharb
p612
(lp613
I14
aI25
aI7
aI3
asVcradbold
p614
(lp615
I9
aI29
aI5
aI2
asVpganti
p616
(lp617
I7
aI50
aI2
aI0
asVpennyfx
p618
(lp619
I0
aI26
aI0
aI0
asVsanchisojeda
p620
(lp621
I7
aI20
aI3
aI0
asVdawsonbotsford
p622
(lp623
I7
aI28
aI2
aI3
asVmaxbrunsfeld
p624
(lp625
I6
aI19
aI1
aI1
asVttdonovan
p626
(lp627
I5
aI11
aI1
aI1
asVjolting
p628
(lp629
I0
aI22
aI0
aI0
asVsurajpindoria
p630
(lp631
I6
aI31
aI2
aI1
asVmihirjham
p632
(lp633
I3
aI23
aI3
aI0
asVmatthewvilhauer
p634
(lp635
I5
aI31
aI2
aI0
asVcespare
p636
(lp637
I2
aI10
aI1
aI0
asVtheresa-clare
p638
(lp639
I7
aI41
aI3
aI1
asVspringmeyer
p640
(lp641
I1
aI0
aI1
aI0
asVteeeg
p642
(lp643
I5
aI7
aI1
aI0
asVtosswill
p644
(lp645
I11
aI27
aI1
aI0
asVbisrael
p646
(lp647
I9
aI28
aI2
aI2
asVdiophung
p648
(lp649
I6
aI41
aI2
aI2
asVdkoudlo
p650
(lp651
I6
aI48
aI2
aI0
asVmschmulen
p652
(lp653
I13
aI40
aI2
aI3
asVzkat
p654
(lp655
I8
aI25
aI1
aI0
asVchoochootrain
p656
(lp657
I7
aI16
aI1
aI0
asValxrsngrtn
p658
(lp659
I11
aI49
aI1
aI0
asVflysonic10
p660
(lp661
I4
aI48
aI1
aI2
asVfredemmott
p662
(lp663
I4
aI11
aI1
aI2
asVBenLiyanage
p664
(lp665
I9
aI32
aI2
aI0
asVvmiculit
p666
(lp667
I1
aI50
aI0
aI0
asVnikogura
p668
(lp669
I8
aI46
aI0
aI0
asVtristanz
p670
(lp671
I6
aI24
aI3
aI2
asVmlerner
p672
(lp673
I6
aI20
aI2
aI0
asVxavdid
p674
(lp675
I7
aI25
aI1
aI1
asVpoojawins
p676
(lp677
I4
aI31
aI2
aI0
asVmichaellin
p678
(lp679
I5
aI27
aI2
aI0
asVbfoz
p680
(lp681
I10
aI15
aI2
aI0
asVaniketzamwar
p682
(lp683
I5
aI40
aI3
aI3
asVmb-dev
p684
(lp685
I7
aI25
aI1
aI1
asVrdegnan
p686
(lp687
I4
aI14
aI2
aI0
asVantoniobg
p688
(lp689
I4
aI19
aI3
aI1
asVddamko
p690
(lp691
I6
aI17
aI2
aI3
asVanupcshan
p692
(lp693
I8
aI10
aI2
aI0
asVmixophrygian
p694
(lp695
I5
aI17
aI1
aI1
asVvintrepid
p696
(lp697
I0
aI0
aI0
aI0
asVsefk
p698
(lp699
I10
aI20
aI1
aI0
asVhnduong
p700
(lp701
I6
aI24
aI2
aI1
asVkassens
p702
(lp703
I2
aI11
aI1
aI0
asVknowshan
p704
(lp705
I6
aI18
aI2
aI0
asVpaninapress
p706
(lp707
I11
aI37
aI0
aI1
asVccorcos
p708
(lp709
I6
aI19
aI2
aI1
asVecdemis123
p710
(lp711
I3
aI40
aI2
aI0
asVbrianhorakh
p712
(lp713
I4
aI50
aI2
aI0
asValexlafroscia
p714
(lp715
I4
aI23
aI2
aI1
asVkuanyingchou
p716
(lp717
I4
aI13
aI2
aI0
asVsotownsend
p718
(lp719
I0
aI16
aI1
aI0
asVcallmeed
p720
(lp721
I4
aI15
aI3
aI0
asVscanon
p722
(lp723
I5
aI23
aI2
aI0
asVchrisdembia
p724
(lp725
I1
aI10
aI1
aI0
asVabhinavdangeti
p726
(lp727
I4
aI7
aI4
aI2
asVlaughnan
p728
(lp729
I10
aI50
aI2
aI3
asVleptone
p730
(lp731
I6
aI41
aI1
aI2
asVNazanin1369
p732
(lp733
I7
aI50
aI4
aI1
asVrstellar
p734
(lp735
I8
aI26
aI4
aI1
asVpiperchester
p736
(lp737
I5
aI22
aI1
aI0
asVnivedhithaVenkatachalam
p738
(lp739
I3
aI36
aI2
aI0
asVAlahmadiQ8
p740
(lp741
I3
aI32
aI2
aI0
asVtaylorharwin
p742
(lp743
I4
aI17
aI3
aI1
asVmariozig
p744
(lp745
I5
aI22
aI1
aI0
asVpalmer-dabbelt
p746
(lp747
I6
aI7
aI3
aI1
asVtheganyo
p748
(lp749
I14
aI29
aI2
aI3
asVlacker
p750
(lp751
I5
aI0
aI2
aI1
asVblithe
p752
(lp753
I5
aI0
aI2
aI2
asVashirwad08
p754
(lp755
I8
aI29
aI2
aI2
asVamir20
p756
(lp757
I0
aI0
aI0
aI0
asVksheedlo
p758
(lp759
I7
aI25
aI1
aI2
asVspenserhale
p760
(lp761
I2
aI23
aI0
aI1
asVevgimov
p762
(lp763
I2
aI23
aI2
aI0
asVscotmatson
p764
(lp765
I12
aI47
aI2
aI1
asVSFoskitt
p766
(lp767
I5
aI34
aI4
aI0
asVaiba
p768
(lp769
I9
aI18
aI2
aI1
asVpiclez
p770
(lp771
I0
aI28
aI2
aI2
asVnataren
p772
(lp773
I5
aI43
aI2
aI0
asVvinibaggio
p774
(lp775
I11
aI36
aI1
aI1
asVslimeate
p776
(lp777
I1
aI9
aI1
aI0
asVrenfredxh
p778
(lp779
I5
aI11
aI1
aI1
asVnaoyamakino
p780
(lp781
I7
aI16
aI2
aI1
asVrthota50
p782
(lp783
I5
aI22
aI2
aI0
asVgtdeng
p784
(lp785
I0
aI36
aI0
aI0
asVkvey
p786
(lp787
I6
aI31
aI2
aI0
asVkickinbahk
p788
(lp789
I7
aI17
aI1
aI2
asVrosieesirimitr
p790
(lp791
I4
aI27
aI2
aI1
asVmmlindeboom
p792
(lp793
I7
aI25
aI2
aI0
asVepps
p794
(lp795
I9
aI34
aI5
aI1
asVzfjagann
p796
(lp797
I7
aI19
aI1
aI0
asVjackfern
p798
(lp799
I8
aI24
aI2
aI0
asVaudreywatters
p800
(lp801
I0
aI0
aI1
aI0
asVfurf
p802
(lp803
I15
aI46
aI1
aI1
asVjulianpoy
p804
(lp805
I1
aI3
aI0
aI0
asVtorsday
p806
(lp807
I9
aI50
aI4
aI0
asVjdivock
p808
(lp809
I8
aI22
aI1
aI1
asVamilajack
p810
(lp811
I0
aI18
aI0
aI0
asVdiversario
p812
(lp813
I5
aI24
aI2
aI1
asVJakeHartnell
p814
(lp815
I3
aI27
aI2
aI2
asValuzzardi
p816
(lp817
I7
aI11
aI2
aI0
asVcmelbye
p818
(lp819
I2
aI13
aI1
aI0
asVsqs
p820
(lp821
I8
aI13
aI1
aI1
asVyegor256
p822
(lp823
I1
aI33
aI1
aI2
asVsabbyanandan
p824
(lp825
I1
aI50
aI0
aI0
asVchstan
p826
(lp827
I3
aI17
aI2
aI1
asVdnegstad
p828
(lp829
I4
aI28
aI1
aI0
asVkuychaco
p830
(lp831
I4
aI23
aI3
aI0
asVgnestor
p832
(lp833
I6
aI20
aI3
aI2
asViGitScor
p834
(lp835
I3
aI31
aI2
aI1
asVtristansokol
p836
(lp837
I9
aI22
aI2
aI1
asVKellel
p838
(lp839
I6
aI5
aI2
aI0
asVazanebrain
p840
(lp841
I12
aI45
aI1
aI3
asVtomelm
p842
(lp843
I3
aI25
aI1
aI1
asVMarcinthecloud
p844
(lp845
I5
aI40
aI2
aI1
asVjerhinesmith
p846
(lp847
I4
aI41
aI1
aI1
asVcadyherron
p848
(lp849
I4
aI22
aI2
aI0
asVkovrov
p850
(lp851
I0
aI21
aI0
aI0
asVsmallhaxe
p852
(lp853
I0
aI0
aI0
aI0
asVcnaut
p854
(lp855
I9
aI24
aI2
aI3
asVnalipaz
p856
(lp857
I12
aI23
aI2
aI3
asVlockoff
p858
(lp859
I5
aI17
aI3
aI2
asVaguynamedben
p860
(lp861
I7
aI18
aI2
aI0
asVSiggs2000
p862
(lp863
I7
aI19
aI2
aI2
asVKranjbar
p864
(lp865
I8
aI28
aI3
aI0
asVthommahoney
p866
(lp867
I5
aI26
aI1
aI1
asVFCSerpa
p868
(lp869
I1
aI20
aI2
aI0
asVgmccreight
p870
(lp871
I0
aI11
aI0
aI0
asVcboots
p872
(lp873
I5
aI0
aI2
aI1
asVskyhighwings
p874
(lp875
I3
aI47
aI1
aI0
asVbhoriuchi
p876
(lp877
I0
aI50
aI0
aI0
asVyashplorer
p878
(lp879
I1
aI19
aI0
aI1
asVwyne
p880
(lp881
I8
aI38
aI2
aI1
asVheston
p882
(lp883
I9
aI41
aI2
aI1
asVdozoisch
p884
(lp885
I6
aI16
aI2
aI2
asVbromanko
p886
(lp887
I12
aI35
aI2
aI0
asVbentruyman
p888
(lp889
I5
aI38
aI1
aI1
asVyez
p890
(lp891
I4
aI17
aI1
aI1
asValohageck0
p892
(lp893
I0
aI0
aI0
aI0
asVlevex
p894
(lp895
I5
aI42
aI3
aI0
asVericktai
p896
(lp897
I3
aI11
aI5
aI0
asVpurag
p898
(lp899
I7
aI24
aI2
aI2
asVceteri
p900
(lp901
I1
aI38
aI6
aI0
asVramilsharifsoy
p902
(lp903
I0
aI0
aI0
aI0
asVdrtshock
p904
(lp905
I6
aI26
aI2
aI0
asVedoecohen
p906
(lp907
I7
aI50
aI4
aI1
asVbmhayzlett
p908
(lp909
I5
aI33
aI4
aI1
asVladanazita
p910
(lp911
I7
aI18
aI3
aI0
asVgguuss
p912
(lp913
I4
aI38
aI2
aI0
asVbugsyAlexander
p914
(lp915
I5
aI50
aI2
aI0
asVRavenwater
p916
(lp917
I6
aI50
aI3
aI2
asVsadiew
p918
(lp919
I6
aI0
aI2
aI0
asVamituuush
p920
(lp921
I8
aI20
aI2
aI2
asVyutakahoulette
p922
(lp923
I1
aI4
aI3
aI3
asVmredar
p924
(lp925
I0
aI21
aI0
aI0
asVcobookman
p926
(lp927
I5
aI50
aI1
aI2
asVteleolurian
p928
(lp929
I4
aI24
aI1
aI0
asVjbrahy
p930
(lp931
I0
aI50
aI0
aI0
asVvsergeev
p932
(lp933
I0
aI0
aI0
aI0
asVdlitz
p934
(lp935
I10
aI21
aI1
aI1
asVWoodjack
p936
(lp937
I1
aI16
aI3
aI0
asVnarenranjit
p938
(lp939
I8
aI21
aI2
aI0
asVtdiede
p940
(lp941
I9
aI45
aI3
aI2
asVboz
p942
(lp943
I8
aI29
aI0
aI0
asVbanga
p944
(lp945
I0
aI0
aI1
aI0
asVwileykestner
p946
(lp947
I6
aI30
aI2
aI0
asVsarahfo
p948
(lp949
I11
aI47
aI4
aI0
asVDaegalus
p950
(lp951
I5
aI30
aI4
aI2
asVjeffkibuule
p952
(lp953
I2
aI15
aI3
aI1
asVjheising
p954
(lp955
I9
aI27
aI0
aI0
asVDiyahM
p956
(lp957
I3
aI37
aI2
aI3
asVztellman
p958
(lp959
I5
aI14
aI1
aI2
asVemmya
p960
(lp961
I6
aI26
aI2
aI0
asVbechelani
p962
(lp963
I7
aI50
aI2
aI2
asVkabah
p964
(lp965
I1
aI0
aI0
aI0
asVadinardi
p966
(lp967
I13
aI10
aI1
aI2
asVevangoer
p968
(lp969
I0
aI23
aI0
aI0
asVfrancisco-perez-sorrosal
p970
(lp971
I9
aI41
aI5
aI3
asVchornyi
p972
(lp973
I7
aI26
aI4
aI0
asVphilihp
p974
(lp975
I1
aI0
aI2
aI1
asVrhallie15
p976
(lp977
I12
aI9
aI2
aI1
asVerelson
p978
(lp979
I6
aI0
aI2
aI2
asVjoshSzep
p980
(lp981
I8
aI50
aI2
aI0
asVpavlos
p982
(lp983
I6
aI47
aI2
aI0
asVsrslafazan
p984
(lp985
I8
aI33
aI3
aI2
asVauldsy-ababua
p986
(lp987
I3
aI4
aI1
aI0
asVfinik
p988
(lp989
I9
aI27
aI2
aI0
asVanudhagat
p990
(lp991
I5
aI24
aI3
aI1
asVmaxhodak
p992
(lp993
I5
aI29
aI1
aI0
asVgarvankeeley
p994
(lp995
I4
aI26
aI1
aI1
asVtoddhodes
p996
(lp997
I3
aI28
aI4
aI2
asVnmcglincy
p998
(lp999
I4
aI15
aI2
aI1
asVlaurenor
p1000
(lp1001
I4
aI18
aI2
aI2
asVjoshvermaire
p1002
(lp1003
I5
aI13
aI1
aI1
asVpurplecabbage
p1004
(lp1005
I5
aI24
aI2
aI2
asVrenderf0x
p1006
(lp1007
I8
aI49
aI4
aI3
asVmikatalk
p1008
(lp1009
I1
aI0
aI0
aI0
asVJimbly
p1010
(lp1011
I5
aI23
aI1
aI1
asVPedroMDuarte
p1012
(lp1013
I4
aI28
aI0
aI1
asVjathanism
p1014
(lp1015
I8
aI50
aI0
aI0
asVnikunjchapadia
p1016
(lp1017
I6
aI32
aI2
aI0
asVnemo
p1018
(lp1019
I11
aI43
aI1
aI2
asVjbpoline
p1020
(lp1021
I1
aI26
aI0
aI0
asVbrochington
p1022
(lp1023
I3
aI20
aI1
aI1
asVmonstersLA
p1024
(lp1025
I5
aI50
aI1
aI2
asVchadhietala
p1026
(lp1027
I8
aI30
aI2
aI0
asVlachilles
p1028
(lp1029
I7
aI40
aI3
aI0
asVcamsjams
p1030
(lp1031
I7
aI47
aI2
aI0
asVjormon
p1032
(lp1033
I6
aI28
aI2
aI0
asVSebastianThiebaud
p1034
(lp1035
I4
aI29
aI4
aI2
asVlevi
p1036
(lp1037
I7
aI19
aI0
aI1
asVthemattman
p1038
(lp1039
I7
aI16
aI2
aI2
asVeveliotc
p1040
(lp1041
I5
aI50
aI0
aI1
asVkurtzur
p1042
(lp1043
I7
aI21
aI1
aI0
asVjannon
p1044
(lp1045
I0
aI29
aI0
aI0
asVisaacg11
p1046
(lp1047
I3
aI34
aI1
aI1
asVavand
p1048
(lp1049
I4
aI12
aI1
aI0
asVjrm2k6
p1050
(lp1051
I5
aI15
aI3
aI2
asVevansagge
p1052
(lp1053
I11
aI50
aI2
aI3
asVdzoba
p1054
(lp1055
I0
aI29
aI0
aI0
asVacmcarther
p1056
(lp1057
I4
aI17
aI1
aI0
asVchundongwang
p1058
(lp1059
I1
aI0
aI0
aI0
asVianvanness
p1060
(lp1061
I0
aI18
aI0
aI1
asVryanatwork
p1062
(lp1063
I6
aI47
aI2
aI1
asVmassiv64
p1064
(lp1065
I2
aI16
aI3
aI0
asVcoryodaniel
p1066
(lp1067
I7
aI37
aI1
aI3
asVheygrady
p1068
(lp1069
I0
aI32
aI1
aI0
asVHakanL
p1070
(lp1071
I1
aI39
aI0
aI2
asVIsenrichO
p1072
(lp1073
I0
aI38
aI0
aI2
asVaculich
p1074
(lp1075
I1
aI10
aI0
aI0
asVasponring
p1076
(lp1077
I9
aI50
aI3
aI0
asVchirayuk
p1078
(lp1079
I6
aI19
aI5
aI1
asVebalcomb
p1080
(lp1081
I11
aI16
aI2
aI0
asVtheanti9
p1082
(lp1083
I9
aI20
aI0
aI0
asVarilamstein
p1084
(lp1085
I0
aI0
aI0
aI0
asVyuriybash
p1086
(lp1087
I8
aI21
aI0
aI0
asVnoprompt
p1088
(lp1089
I4
aI11
aI2
aI0
asVtylerstalder
p1090
(lp1091
I10
aI0
aI2
aI1
asVgrnbeagle
p1092
(lp1093
I1
aI29
aI0
aI3
asVApelsin
p1094
(lp1095
I4
aI36
aI2
aI1
asVmarciandmnd
p1096
(lp1097
I4
aI20
aI1
aI2
asVcriccomini
p1098
(lp1099
I6
aI36
aI2
aI1
asVumgauper
p1100
(lp1101
I9
aI26
aI2
aI0
asVehalferty
p1102
(lp1103
I4
aI21
aI1
aI1
asVcaseybecking
p1104
(lp1105
I12
aI18
aI2
aI1
asVissackelly
p1106
(lp1107
I3
aI18
aI2
aI0
asVcfieber
p1108
(lp1109
I9
aI50
aI1
aI0
asVbickart
p1110
(lp1111
I12
aI49
aI4
aI2
asVharlanji
p1112
(lp1113
I9
aI21
aI1
aI1
asVjakev
p1114
(lp1115
I7
aI21
aI2
aI3
asVmcpherrinm
p1116
(lp1117
I8
aI17
aI1
aI1
asVelrond79
p1118
(lp1119
I0
aI7
aI0
aI0
asVfuJiin
p1120
(lp1121
I6
aI17
aI2
aI0
asVArebeth
p1122
(lp1123
I9
aI27
aI3
aI1
asVdcamposliz
p1124
(lp1125
I1
aI37
aI2
aI1
asVprogrmr
p1126
(lp1127
I0
aI0
aI0
aI0
asVacastanieto
p1128
(lp1129
I3
aI15
aI4
aI0
asVchandler767
p1130
(lp1131
I4
aI50
aI3
aI3
asVstaugaard
p1132
(lp1133
I4
aI14
aI1
aI2
asVheisters
p1134
(lp1135
I10
aI11
aI2
aI1
asVreedloden
p1136
(lp1137
I1
aI40
aI0
aI0
asVAwnallah
p1138
(lp1139
I0
aI0
aI0
aI0
asVlandongn
p1140
(lp1141
I11
aI33
aI0
aI2
asVcopacetic
p1142
(lp1143
I2
aI12
aI1
aI0
asVtrevorgreenleaf
p1144
(lp1145
I9
aI32
aI2
aI2
asVcbeighley
p1146
(lp1147
I4
aI25
aI1
aI0
asVnbarbettini
p1148
(lp1149
I6
aI23
aI1
aI1
asVjenmei
p1150
(lp1151
I1
aI17
aI0
aI0
asVthirab
p1152
(lp1153
I6
aI37
aI2
aI0
asVcaglar10ur
p1154
(lp1155
I0
aI0
aI0
aI0
asVcamirmas
p1156
(lp1157
I0
aI14
aI0
aI0
asVsbenthall
p1158
(lp1159
I8
aI35
aI2
aI0
asVeggsby
p1160
(lp1161
I6
aI26
aI0
aI3
asVeldarshamukhamedov
p1162
(lp1163
I4
aI22
aI2
aI0
asVshykes
p1164
(lp1165
I6
aI27
aI4
aI1
asVjboyens
p1166
(lp1167
I9
aI42
aI0
aI1
asVsunshinewyin
p1168
(lp1169
I3
aI31
aI3
aI0
asVgprestes
p1170
(lp1171
I9
aI50
aI1
aI1
asVvsoch
p1172
(lp1173
I0
aI0
aI0
aI0
asVsanchitbareja
p1174
(lp1175
I5
aI22
aI5
aI2
asVjustintumale
p1176
(lp1177
I6
aI34
aI2
aI0
asVmarshallbrekka
p1178
(lp1179
I7
aI22
aI2
aI1
asVkavinderd
p1180
(lp1181
I6
aI0
aI2
aI1
asVnetspencer
p1182
(lp1183
I10
aI35
aI2
aI0
asVkthurimella
p1184
(lp1185
I11
aI20
aI2
aI1
asVbenubois
p1186
(lp1187
I1
aI0
aI0
aI0
asVexistenzial
p1188
(lp1189
I6
aI49
aI2
aI3
asVdpg5000
p1190
(lp1191
I2
aI18
aI2
aI2
asVdevmeyster
p1192
(lp1193
I9
aI32
aI2
aI2
asVjessehattabaugh
p1194
(lp1195
I11
aI50
aI2
aI3
asVmikofski
p1196
(lp1197
I7
aI46
aI5
aI2
asVrishiprav
p1198
(lp1199
I6
aI27
aI4
aI0
asVcallmevlad
p1200
(lp1201
I4
aI21
aI4
aI1
asVtdsmith
p1202
(lp1203
I3
aI14
aI3
aI0
asVtrakout
p1204
(lp1205
I6
aI35
aI1
aI0
asVbsurnida
p1206
(lp1207
I3
aI20
aI1
aI0
asVjnmaloof
p1208
(lp1209
I3
aI16
aI2
aI0
asVleoadelstein
p1210
(lp1211
I1
aI33
aI3
aI0
asVSilasX
p1212
(lp1213
I6
aI22
aI4
aI1
asVDottenpixel
p1214
(lp1215
I0
aI43
aI0
aI0
asVamedeedaboville
p1216
(lp1217
I5
aI20
aI2
aI0
asVcasualjim
p1218
(lp1219
I10
aI29
aI1
aI3
asVgogrean
p1220
(lp1221
I5
aI15
aI4
aI1
asVazanar
p1222
(lp1223
I10
aI24
aI1
aI1
asVamitsnyderman
p1224
(lp1225
I4
aI34
aI2
aI0
asVjmancherje
p1226
(lp1227
I8
aI30
aI2
aI1
asVpkmital
p1228
(lp1229
I5
aI23
aI2
aI1
asVbvenners
p1230
(lp1231
I0
aI0
aI0
aI0
asVstevenschlansker
p1232
(lp1233
I4
aI8
aI3
aI0
asVmubarak
p1234
(lp1235
I6
aI11
aI3
aI0
asVchadrik
p1236
(lp1237
I0
aI23
aI0
aI0
asVegaba88
p1238
(lp1239
I6
aI39
aI1
aI1
asVheidikumar
p1240
(lp1241
I6
aI14
aI4
aI0
asVbarakmich
p1242
(lp1243
I3
aI21
aI2
aI0
asVschordas
p1244
(lp1245
I9
aI21
aI4
aI0
asVmorninj
p1246
(lp1247
I17
aI33
aI3
aI1
asVbclay
p1248
(lp1249
I10
aI16
aI2
aI0
asVrahuljiresal
p1250
(lp1251
I7
aI24
aI2
aI2
asVandrewmohrland
p1252
(lp1253
I0
aI0
aI0
aI0
asVftripier
p1254
(lp1255
I3
aI44
aI1
aI0
asVCarreau
p1256
(lp1257
I2
aI16
aI3
aI0
asVazorko
p1258
(lp1259
I8
aI30
aI2
aI0
asVkaechele
p1260
(lp1261
I6
aI35
aI2
aI1
asVmhuerster
p1262
(lp1263
I4
aI15
aI3
aI2
asVktiedt
p1264
(lp1265
I0
aI26
aI0
aI0
asVjoepestro
p1266
(lp1267
I6
aI20
aI0
aI0
asVnikolayvoronchikhin
p1268
(lp1269
I16
aI50
aI13
aI3
asVosternaudClem
p1270
(lp1271
I5
aI23
aI2
aI1
asVvzaliva
p1272
(lp1273
I8
aI38
aI4
aI3
asVanooprh
p1274
(lp1275
I4
aI24
aI6
aI1
asVtacho87
p1276
(lp1277
I7
aI36
aI1
aI1
asVfugalh
p1278
(lp1279
I0
aI18
aI0
aI0
asVDrBoolean
p1280
(lp1281
I5
aI15
aI0
aI2
asVdferrantelli
p1282
(lp1283
I13
aI25
aI0
aI0
asVQix-
p1284
(lp1285
I7
aI48
aI1
aI0
asVsarahsucha
p1286
(lp1287
I4
aI37
aI2
aI0
asVch3rr17
p1288
(lp1289
I11
aI49
aI4
aI0
asVphvannor
p1290
(lp1291
I5
aI19
aI1
aI0
asVcrempp
p1292
(lp1293
I7
aI35
aI2
aI0
asVbhamodi
p1294
(lp1295
I6
aI0
aI2
aI3
asVbrynbodayle
p1296
(lp1297
I2
aI11
aI2
aI1
asVkarlmutch
p1298
(lp1299
I9
aI47
aI0
aI1
asVturlockmike
p1300
(lp1301
I9
aI38
aI1
aI1
asVpalexander
p1302
(lp1303
I6
aI50
aI5
aI3
asVhpaas001
p1304
(lp1305
I0
aI15
aI4
aI0
asVcarterdea
p1306
(lp1307
I1
aI40
aI2
aI0
asVthinkski
p1308
(lp1309
I5
aI31
aI2
aI0
asVespiler
p1310
(lp1311
I11
aI29
aI4
aI2
asVjpruf
p1312
(lp1313
I5
aI0
aI0
aI0
asVdanielchalef
p1314
(lp1315
I0
aI0
aI0
aI0
asVcharford
p1316
(lp1317
I8
aI43
aI2
aI1
asVvandewilly
p1318
(lp1319
I10
aI44
aI1
aI1
asVtoddlipcon
p1320
(lp1321
I5
aI30
aI2
aI0
asVmudiarto
p1322
(lp1323
I7
aI18
aI1
aI1
asVeshilts
p1324
(lp1325
I8
aI16
aI3
aI2
asVhartsick
p1326
(lp1327
I8
aI16
aI2
aI1
asVysiadf
p1328
(lp1329
I7
aI28
aI3
aI2
asVCruig
p1330
(lp1331
I8
aI37
aI2
aI0
asVjimjea
p1332
(lp1333
I0
aI28
aI2
aI0
asVJayKickliter
p1334
(lp1335
I5
aI24
aI2
aI1
asVabuddiga
p1336
(lp1337
I5
aI28
aI4
aI0
asVjreidgreer
p1338
(lp1339
I4
aI34
aI2
aI0
asVaccesio
p1340
(lp1341
I0
aI47
aI0
aI0
asValokedesai
p1342
(lp1343
I8
aI26
aI2
aI0
asVbojdell
p1344
(lp1345
I9
aI21
aI3
aI1
asVlbearl
p1346
(lp1347
I6
aI40
aI1
aI2
asVkarmadude
p1348
(lp1349
I4
aI18
aI2
aI2
asVmegawidget
p1350
(lp1351
I7
aI11
aI1
aI0
asVbaldurrensch
p1352
(lp1353
I4
aI43
aI2
aI0
asVbaugarten
p1354
(lp1355
I7
aI21
aI1
aI0
asVmgottscho
p1356
(lp1357
I10
aI0
aI3
aI3
asVspyrosoft
p1358
(lp1359
I7
aI38
aI0
aI3
asVjadengore
p1360
(lp1361
I5
aI13
aI2
aI2
asVmdxp
p1362
(lp1363
I8
aI43
aI1
aI2
asVforestbelton
p1364
(lp1365
I5
aI17
aI0
aI0
asVsonph
p1366
(lp1367
I1
aI0
aI0
aI0
asVarchagon
p1368
(lp1369
I2
aI0
aI1
aI1
asVryanbahniuk
p1370
(lp1371
I6
aI34
aI2
aI2
asVfritzdenim
p1372
(lp1373
I1
aI0
aI0
aI0
asValexgorbatchev
p1374
(lp1375
I34
aI0
aI0
aI2
asVbryanhelmig
p1376
(lp1377
I0
aI26
aI2
aI1
asVkklimuk
p1378
(lp1379
I6
aI40
aI1
aI0
asVsachinrase
p1380
(lp1381
I6
aI38
aI3
aI0
asVmennamorato
p1382
(lp1383
I0
aI22
aI0
aI0
asVmacro
p1384
(lp1385
I9
aI14
aI0
aI0
asVdazarov
p1386
(lp1387
I3
aI36
aI1
aI0
asVbingomanatee
p1388
(lp1389
I12
aI20
aI1
aI1
asVeghobo
p1390
(lp1391
I12
aI50
aI1
aI0
asVarik-so
p1392
(lp1393
I5
aI48
aI0
aI0
asVjamischarles
p1394
(lp1395
I8
aI29
aI2
aI2
asVbrianneisler
p1396
(lp1397
I9
aI44
aI1
aI3
asVmarklar
p1398
(lp1399
I0
aI24
aI0
aI0
asVamrit
p1400
(lp1401
I7
aI29
aI2
aI1
asVjustinpinili
p1402
(lp1403
I4
aI23
aI2
aI0
asVgatoatigrado
p1404
(lp1405
I2
aI13
aI2
aI1
asVkapadiamush
p1406
(lp1407
I8
aI22
aI1
aI0
asVL3DG3R
p1408
(lp1409
I3
aI28
aI2
aI0
asVthearthur
p1410
(lp1411
I6
aI36
aI1
aI1
asVchrismattmann
p1412
(lp1413
I0
aI50
aI0
aI0
asVtaranamol
p1414
(lp1415
I7
aI30
aI2
aI0
asVdasevilla
p1416
(lp1417
I8
aI10
aI1
aI2
asVerinlehmkuhl
p1418
(lp1419
I9
aI32
aI2
aI1
asVgormus
p1420
(lp1421
I1
aI50
aI1
aI3
asVoutsource
p1422
(lp1423
I8
aI24
aI0
aI3
asVnassirmz
p1424
(lp1425
I0
aI26
aI1
aI0
asVooleem
p1426
(lp1427
I4
aI18
aI1
aI0
asV67ideas
p1428
(lp1429
I8
aI10
aI2
aI3
asVLoRyder1
p1430
(lp1431
I6
aI24
aI3
aI1
asVsebastienwindal
p1432
(lp1433
I8
aI50
aI1
aI1
asVZhyliana
p1434
(lp1435
I0
aI0
aI0
aI0
asVekampf
p1436
(lp1437
I12
aI25
aI0
aI2
asVtheethiopian
p1438
(lp1439
I9
aI50
aI3
aI1
asVrobdvr
p1440
(lp1441
I0
aI0
aI0
aI0
asVsamrocketman
p1442
(lp1443
I9
aI50
aI1
aI1
asVtve
p1444
(lp1445
I1
aI20
aI0
aI2
asVdlazerka
p1446
(lp1447
I11
aI37
aI2
aI3
asVthenayr
p1448
(lp1449
I5
aI26
aI0
aI2
asVAriT93
p1450
(lp1451
I6
aI50
aI1
aI1
asVnybbles
p1452
(lp1453
I12
aI37
aI3
aI0
asVkukulski
p1454
(lp1455
I14
aI39
aI2
aI0
asVdemonbane
p1456
(lp1457
I7
aI0
aI0
aI0
asVKaceykaso
p1458
(lp1459
I7
aI42
aI2
aI2
asValexmingoia
p1460
(lp1461
I5
aI23
aI0
aI0
asVamotoohno
p1462
(lp1463
I0
aI16
aI0
aI0
asVuhoh-itsmaciek
p1464
(lp1465
I3
aI0
aI1
aI1
asVjustinpincar
p1466
(lp1467
I13
aI50
aI1
aI2
asVchinmaygarde
p1468
(lp1469
I5
aI14
aI2
aI1
asVjmtoung
p1470
(lp1471
I5
aI15
aI4
aI0
asVstrycore
p1472
(lp1473
I3
aI34
aI2
aI3
asVamasad
p1474
(lp1475
I9
aI35
aI2
aI1
asVsri
p1476
(lp1477
I4
aI6
aI1
aI3
asVAlexeyMK
p1478
(lp1479
I8
aI0
aI2
aI1
asVStunner
p1480
(lp1481
I4
aI27
aI2
aI3
asVvgeshel
p1482
(lp1483
I1
aI6
aI0
aI0
asVggilder
p1484
(lp1485
I8
aI36
aI1
aI1
asVnoahgolmant
p1486
(lp1487
I3
aI12
aI1
aI0
asVrglassett
p1488
(lp1489
I7
aI18
aI3
aI0
asVtheresaluu
p1490
(lp1491
I0
aI0
aI0
aI0
asVcvan
p1492
(lp1493
I4
aI13
aI1
aI2
asVmaksimgm
p1494
(lp1495
I6
aI29
aI2
aI2
asVstrager
p1496
(lp1497
I0
aI0
aI0
aI0
asVsebm
p1498
(lp1499
I8
aI27
aI1
aI0
asVMSchip
p1500
(lp1501
I5
aI27
aI2
aI2
asVstolt45
p1502
(lp1503
I0
aI0
aI0
aI0
asVkennonkwok
p1504
(lp1505
I7
aI23
aI1
aI1
asVdeadlyicon
p1506
(lp1507
I12
aI32
aI1
aI3
asVgonsie
p1508
(lp1509
I7
aI17
aI2
aI1
asVmarcusbuffett
p1510
(lp1511
I2
aI14
aI1
aI0
asVblopker
p1512
(lp1513
I6
aI13
aI2
aI2
asVDhiMalo
p1514
(lp1515
I0
aI26
aI3
aI0
asVsyrusakbary
p1516
(lp1517
I5
aI30
aI1
aI0
asVyarixxx
p1518
(lp1519
I5
aI39
aI2
aI1
asVpcrumm
p1520
(lp1521
I9
aI50
aI2
aI2
asVcbeust
p1522
(lp1523
I0
aI23
aI0
aI0
asVvalmassoi
p1524
(lp1525
I3
aI29
aI2
aI3
asVdarylsew
p1526
(lp1527
I9
aI23
aI2
aI1
asVcwlbraa
p1528
(lp1529
I8
aI28
aI2
aI1
asVnickretallack
p1530
(lp1531
I9
aI8
aI1
aI1
asVpsugihara
p1532
(lp1533
I7
aI18
aI3
aI2
asVkavika13
p1534
(lp1535
I0
aI18
aI0
aI0
asVkrunkosaurus
p1536
(lp1537
I12
aI40
aI2
aI3
asValokmenghrajani
p1538
(lp1539
I0
aI24
aI0
aI0
asVgrust101
p1540
(lp1541
I5
aI35
aI3
aI1
asVtelaviv
p1542
(lp1543
I5
aI7
aI1
aI0
asVevanboho
p1544
(lp1545
I9
aI22
aI2
aI2
asVleranf
p1546
(lp1547
I4
aI30
aI3
aI0
asVb1naryth1ef
p1548
(lp1549
I2
aI0
aI0
aI0
asVzik-uralov
p1550
(lp1551
I3
aI18
aI4
aI2
asVframgjoa
p1552
(lp1553
I9
aI25
aI3
aI0
asVturadg
p1554
(lp1555
I6
aI20
aI3
aI3
asVcarlosvega20
p1556
(lp1557
I2
aI44
aI5
aI1
asVdbachrach
p1558
(lp1559
I10
aI12
aI2
aI2
asVshakefu
p1560
(lp1561
I9
aI33
aI0
aI1
asVsujeetv
p1562
(lp1563
I7
aI23
aI2
aI1
asVsergev
p1564
(lp1565
I7
aI50
aI2
aI3
asVccrame
p1566
(lp1567
I1
aI21
aI2
aI1
asVst3w4r
p1568
(lp1569
I7
aI18
aI3
aI0
asVdwickern
p1570
(lp1571
I1
aI0
aI0
aI0
asVkdelrosso
p1572
(lp1573
I7
aI23
aI4
aI1
asValxhub
p1574
(lp1575
I2
aI13
aI1
aI0
asVsymkat
p1576
(lp1577
I1
aI0
aI0
aI0
asVrobey
p1578
(lp1579
I0
aI20
aI0
aI0
asVtachang
p1580
(lp1581
I7
aI27
aI2
aI1
asVjrejaud
p1582
(lp1583
I5
aI49
aI2
aI1
asVgoxberry
p1584
(lp1585
I6
aI40
aI3
aI3
asVserkanyersen
p1586
(lp1587
I4
aI29
aI1
aI3
asVrevan
p1588
(lp1589
I7
aI1
aI1
aI0
asVjessiahr
p1590
(lp1591
I5
aI33
aI0
aI2
asVaceofspades
p1592
(lp1593
I0
aI50
aI0
aI0
asVtabithablagdon
p1594
(lp1595
I5
aI23
aI3
aI0
asVnharada1
p1596
(lp1597
I4
aI16
aI2
aI2
asVluizirber
p1598
(lp1599
I6
aI25
aI7
aI2
asVblacktaxi
p1600
(lp1601
I0
aI0
aI0
aI0
asVkneath
p1602
(lp1603
I4
aI13
aI1
aI2
asVnotno
p1604
(lp1605
I12
aI49
aI4
aI2
asVdewski
p1606
(lp1607
I5
aI14
aI2
aI2
asVbfolkens
p1608
(lp1609
I4
aI37
aI1
aI3
asVgartz
p1610
(lp1611
I12
aI39
aI2
aI2
asVjoubertnel
p1612
(lp1613
I8
aI12
aI0
aI1
asVzacholauson
p1614
(lp1615
I0
aI0
aI0
aI0
asVchanezon
p1616
(lp1617
I16
aI31
aI2
aI3
asVirae
p1618
(lp1619
I11
aI43
aI2
aI0
asVrajsahae
p1620
(lp1621
I4
aI30
aI1
aI1
asVdtolnay
p1622
(lp1623
I1
aI0
aI0
aI0
asVblarrabee
p1624
(lp1625
I0
aI47
aI0
aI0
asVrosenhouse
p1626
(lp1627
I1
aI0
aI2
aI0
asVchiradeep
p1628
(lp1629
I6
aI39
aI0
aI0
asVbassoman
p1630
(lp1631
I1
aI0
aI0
aI0
asVdaqo
p1632
(lp1633
I7
aI42
aI2
aI1
asVchristopherdro
p1634
(lp1635
I1
aI0
aI0
aI0
asVsclark01
p1636
(lp1637
I9
aI34
aI2
aI1
asVsandance
p1638
(lp1639
I0
aI0
aI0
aI0
asVcardoni
p1640
(lp1641
I7
aI23
aI2
aI3
asVjrk
p1642
(lp1643
I11
aI1
aI3
aI0
asVbiilmann
p1644
(lp1645
I6
aI23
aI1
aI2
asVpaulnt04
p1646
(lp1647
I4
aI0
aI1
aI0
asVtikhon
p1648
(lp1649
I1
aI23
aI2
aI0
asVChaiTeaNunes
p1650
(lp1651
I0
aI41
aI4
aI2
asVbisonhubert
p1652
(lp1653
I7
aI25
aI2
aI0
asVblandinw
p1654
(lp1655
I4
aI20
aI0
aI1
asVAhad-Wasim
p1656
(lp1657
I2
aI28
aI3
aI1
asVnolenfelten
p1658
(lp1659
I0
aI24
aI2
aI2
asVkmalfatti
p1660
(lp1661
I3
aI22
aI4
aI1
asVcalebfornari
p1662
(lp1663
I1
aI16
aI0
aI0
asVadriaanm
p1664
(lp1665
I1
aI7
aI0
aI0
asVjoshlf
p1666
(lp1667
I7
aI10
aI3
aI1
asVrsutormin
p1668
(lp1669
I0
aI10
aI0
aI0
asVMrBri
p1670
(lp1671
I8
aI31
aI2
aI0
asVcsquared
p1672
(lp1673
I7
aI18
aI3
aI0
asVAndolamin
p1674
(lp1675
I6
aI28
aI2
aI2
asVbenwr
p1676
(lp1677
I8
aI22
aI2
aI1
asVEverettQuebral
p1678
(lp1679
I9
aI50
aI0
aI3
asVtdongsi
p1680
(lp1681
I1
aI44
aI2
aI0
asVanton-matosov
p1682
(lp1683
I10
aI50
aI1
aI3
asVkylelortscher
p1684
(lp1685
I0
aI0
aI1
aI0
asVlastres0rt
p1686
(lp1687
I2
aI50
aI2
aI3
asVimrokas
p1688
(lp1689
I0
aI0
aI0
aI0
asVmapk
p1690
(lp1691
I9
aI34
aI2
aI2
asVross-pfahler
p1692
(lp1693
I7
aI20
aI1
aI1
asVskizhak
p1694
(lp1695
I6
aI15
aI2
aI3
asVstraszheim
p1696
(lp1697
I7
aI19
aI2
aI1
asVimwithsam
p1698
(lp1699
I0
aI30
aI0
aI0
asVlevinunnink
p1700
(lp1701
I0
aI25
aI0
aI0
asVtaahachaudhry
p1702
(lp1703
I4
aI28
aI3
aI1
asVandrewmalta13
p1704
(lp1705
I3
aI17
aI5
aI0
asVhshoff
p1706
(lp1707
I2
aI18
aI1
aI1
asVjameelahuq
p1708
(lp1709
I8
aI26
aI5
aI2
asVelafargue
p1710
(lp1711
I1
aI45
aI0
aI0
asVcatrope
p1712
(lp1713
I2
aI26
aI2
aI0
asVgajimenezmaggiora
p1714
(lp1715
I3
aI22
aI2
aI0
asVjacobnisnevich
p1716
(lp1717
I2
aI23
aI1
aI0
asVegh
p1718
(lp1719
I4
aI18
aI1
aI2
asVPholey
p1720
(lp1721
I5
aI50
aI1
aI1
asVpaulrosania
p1722
(lp1723
I7
aI8
aI1
aI2
asVlianos
p1724
(lp1725
I6
aI21
aI3
aI1
asVmk30
p1726
(lp1727
I7
aI9
aI1
aI1
asVhilava
p1728
(lp1729
I4
aI50
aI2
aI0
asVtdfischer
p1730
(lp1731
I1
aI0
aI0
aI0
asVdrem-darios
p1732
(lp1733
I5
aI50
aI2
aI0
asVaadamowski
p1734
(lp1735
I6
aI45
aI5
aI2
asVamlanlimaye
p1736
(lp1737
I6
aI26
aI2
aI2
asVtinio
p1738
(lp1739
I1
aI22
aI1
aI1
asVxalgorithm
p1740
(lp1741
I7
aI40
aI1
aI3
asVaykamko
p1742
(lp1743
I7
aI11
aI1
aI1
asVdnozay
p1744
(lp1745
I8
aI21
aI3
aI2
asVKeleiAzz
p1746
(lp1747
I1
aI19
aI3
aI0
asVNavyAnt24
p1748
(lp1749
I13
aI48
aI7
aI0
asVdman7
p1750
(lp1751
I11
aI39
aI2
aI2
asVzbraniecki
p1752
(lp1753
I0
aI23
aI0
aI0
asVbalumuriraj
p1754
(lp1755
I4
aI43
aI2
aI0
asVfmoo
p1756
(lp1757
I2
aI8
aI1
aI0
asVkhardsonhurley
p1758
(lp1759
I6
aI45
aI3
aI1
asVmjimaz
p1760
(lp1761
I4
aI30
aI4
aI0
asVrameyrobo
p1762
(lp1763
I2
aI50
aI3
aI1
asVolalonde
p1764
(lp1765
I6
aI25
aI2
aI2
asVpsykidellic
p1766
(lp1767
I9
aI23
aI5
aI2
asVterinjokes
p1768
(lp1769
I6
aI31
aI0
aI1
asVdirk
p1770
(lp1771
I4
aI33
aI1
aI0
asVgordon2012
p1772
(lp1773
I2
aI38
aI3
aI0
asVprophen
p1774
(lp1775
I0
aI0
aI0
aI1
asVemezeske
p1776
(lp1777
I5
aI13
aI0
aI2
asVkeronakhla
p1778
(lp1779
I6
aI42
aI1
aI0
asVdineshbhoopathy
p1780
(lp1781
I1
aI0
aI0
aI0
asVviljamis
p1782
(lp1783
I7
aI19
aI0
aI3
asVNuckChorris
p1784
(lp1785
I3
aI7
aI1
aI0
asVrspieldenner
p1786
(lp1787
I4
aI30
aI1
aI2
asViwehrman
p1788
(lp1789
I6
aI19
aI3
aI2
asVbeyang
p1790
(lp1791
I4
aI20
aI1
aI0
asVhuebs
p1792
(lp1793
I10
aI15
aI1
aI1
asVjeyb
p1794
(lp1795
I7
aI31
aI1
aI0
asVsinglerider
p1796
(lp1797
I7
aI32
aI4
aI3
asVshervinshaikh
p1798
(lp1799
I12
aI22
aI1
aI3
asVzg
p1800
(lp1801
I11
aI16
aI2
aI1
asVsarbbottam
p1802
(lp1803
I5
aI37
aI3
aI0
asVadambaker
p1804
(lp1805
I2
aI0
aI2
aI0
asVblzaugg
p1806
(lp1807
I1
aI0
aI0
aI0
asVskofman
p1808
(lp1809
I5
aI30
aI1
aI0
asVnyarly
p1810
(lp1811
I0
aI41
aI0
aI0
asVlordappsec
p1812
(lp1813
I5
aI50
aI2
aI2
asVsponrad
p1814
(lp1815
I11
aI22
aI2
aI3
asVrmuslimov
p1816
(lp1817
I6
aI26
aI1
aI0
asVmisham
p1818
(lp1819
I13
aI41
aI1
aI1
asVjessepollak
p1820
(lp1821
I3
aI26
aI2
aI2
asVzmanji
p1822
(lp1823
I8
aI7
aI2
aI1
asVrouzbeh84
p1824
(lp1825
I1
aI30
aI4
aI0
asVbayreporta
p1826
(lp1827
I8
aI26
aI2
aI0
asVleoromanovsky
p1828
(lp1829
I4
aI25
aI1
aI0
asVarshad
p1830
(lp1831
I0
aI15
aI0
aI0
asVskepticfx
p1832
(lp1833
I0
aI0
aI0
aI0
asVjkeesh
p1834
(lp1835
I4
aI16
aI1
aI3
asVAniroel
p1836
(lp1837
I4
aI41
aI2
aI1
asVgrigorovskaya
p1838
(lp1839
I3
aI37
aI3
aI0
asVseangeleno
p1840
(lp1841
I3
aI26
aI3
aI0
asVcfurrow
p1842
(lp1843
I8
aI42
aI1
aI2
asVmoltendorf
p1844
(lp1845
I3
aI16
aI1
aI0
asVsophypal
p1846
(lp1847
I8
aI28
aI2
aI0
asVbwiklund
p1848
(lp1849
I6
aI24
aI1
aI0
asVkg
p1850
(lp1851
I0
aI0
aI1
aI0
asVmrrockabilly
p1852
(lp1853
I3
aI27
aI3
aI2
asValghanmi
p1854
(lp1855
I4
aI19
aI2
aI0
asVbnoguchi
p1856
(lp1857
I1
aI18
aI0
aI0
asVjoksina
p1858
(lp1859
I5
aI45
aI3
aI0
asVtbashor
p1860
(lp1861
I12
aI36
aI2
aI0
asVnealfennimore
p1862
(lp1863
I10
aI38
aI3
aI2
asVAlexYursha
p1864
(lp1865
I5
aI9
aI2
aI1
asVmkidushim
p1866
(lp1867
I4
aI27
aI6
aI2
asVl0s
p1868
(lp1869
I7
aI43
aI1
aI3
asVfoone
p1870
(lp1871
I1
aI13
aI0
aI0
asVSethTisue
p1872
(lp1873
I8
aI11
aI2
aI2
asVjdavisp3
p1874
(lp1875
I0
aI42
aI0
aI0
asVtreyhunner
p1876
(lp1877
I3
aI0
aI1
aI2
asVgianm
p1878
(lp1879
I3
aI0
aI1
aI0
asVvirajkanwade
p1880
(lp1881
I6
aI17
aI5
aI0
asVnaomisorbet
p1882
(lp1883
I1
aI31
aI1
aI0
asVNatashaTheRobot
p1884
(lp1885
I7
aI43
aI1
aI1
asVjamesandariese
p1886
(lp1887
I7
aI27
aI1
aI0
asVgeointerest
p1888
(lp1889
I8
aI45
aI2
aI3
asVstavro
p1890
(lp1891
I7
aI17
aI1
aI1
asVmjdetullio
p1892
(lp1893
I6
aI43
aI1
aI1
asVdustin
p1894
(lp1895
I0
aI39
aI0
aI0
asVbradrydzewski
p1896
(lp1897
I6
aI18
aI2
aI0
asVvjkaruna
p1898
(lp1899
I7
aI0
aI3
aI0
asVhkozachkov
p1900
(lp1901
I6
aI16
aI2
aI0
asVstuhlmueller
p1902
(lp1903
I1
aI0
aI2
aI0
asVzekeslotsky
p1904
(lp1905
I7
aI45
aI3
aI1
asVxmonmon
p1906
(lp1907
I1
aI29
aI3
aI0
asVneilberget
p1908
(lp1909
I0
aI18
aI0
aI0
asVzolrath
p1910
(lp1911
I1
aI13
aI1
aI0
asVfiliph
p1912
(lp1913
I8
aI39
aI4
aI3
asVlardawge
p1914
(lp1915
I5
aI14
aI0
aI0
asVmilospjanic
p1916
(lp1917
I5
aI13
aI3
aI1
asVstrazzere
p1918
(lp1919
I8
aI14
aI2
aI1
asVgabrielkunkel
p1920
(lp1921
I1
aI11
aI0
aI0
asVwhitneybelba
p1922
(lp1923
I6
aI31
aI2
aI0
asVtshiwakoti
p1924
(lp1925
I3
aI48
aI2
aI1
asVbrennonyork
p1926
(lp1927
I5
aI22
aI2
aI1
asVkstrauser
p1928
(lp1929
I0
aI34
aI1
aI0
asVpedramphp
p1930
(lp1931
I4
aI38
aI1
aI0
asVfabrol
p1932
(lp1933
I1
aI0
aI1
aI1
asVMacBoyPro
p1934
(lp1935
I3
aI20
aI1
aI1
asVtbietila
p1936
(lp1937
I3
aI19
aI2
aI0
asVtlhunter
p1938
(lp1939
I1
aI16
aI1
aI2
asVgreysonp
p1940
(lp1941
I7
aI31
aI2
aI0
asVreyjrar
p1942
(lp1943
I0
aI36
aI0
aI3
asVikai
p1944
(lp1945
I6
aI34
aI1
aI2
asVcparnot
p1946
(lp1947
I0
aI21
aI0
aI0
asVerikpukinskis
p1948
(lp1949
I0
aI13
aI0
aI0
asVjmg2107
p1950
(lp1951
I0
aI44
aI0
aI0
asVhenrikerola
p1952
(lp1953
I4
aI0
aI2
aI0
asVborski
p1954
(lp1955
I8
aI13
aI2
aI2
asVjorhett
p1956
(lp1957
I13
aI50
aI0
aI1
asVadamhadani
p1958
(lp1959
I4
aI9
aI0
aI1
asVmattcl
p1960
(lp1961
I4
aI10
aI1
aI2
asVRafaelCosman
p1962
(lp1963
I7
aI0
aI2
aI0
asVgregheo
p1964
(lp1965
I5
aI27
aI2
aI2
asVluciferous
p1966
(lp1967
I5
aI16
aI3
aI0
asVjackemuk
p1968
(lp1969
I21
aI39
aI4
aI0
asVjaxlaw
p1970
(lp1971
I9
aI14
aI1
aI2
asVmrosales
p1972
(lp1973
I8
aI5
aI1
aI0
asVshyiko
p1974
(lp1975
I7
aI0
aI2
aI3
asVlook
p1976
(lp1977
I8
aI21
aI0
aI2
asVmikekap
p1978
(lp1979
I4
aI13
aI1
aI0
asVTooTallNate
p1980
(lp1981
I1
aI16
aI1
aI1
asVdominic
p1982
(lp1983
I3
aI19
aI1
aI0
asVelissatong
p1984
(lp1985
I7
aI37
aI1
aI3
asVleonardykris
p1986
(lp1987
I5
aI20
aI1
aI0
asVchadrem
p1988
(lp1989
I1
aI0
aI0
aI3
asVyannikmesserli
p1990
(lp1991
I10
aI18
aI3
aI1
asVcduruk
p1992
(lp1993
I10
aI10
aI2
aI1
asVnicolasgomollon
p1994
(lp1995
I4
aI38
aI2
aI2
asVjpf
p1996
(lp1997
I8
aI26
aI0
aI3
asVspartanadvent
p1998
(lp1999
I0
aI15
aI0
aI0
asVspond
p2000
(lp2001
I0
aI21
aI0
aI0
asV5harf
p2002
(lp2003
I8
aI9
aI2
aI0
asVConanza
p2004
(lp2005
I8
aI26
aI2
aI0
asVstriglia
p2006
(lp2007
I7
aI15
aI2
aI0
asVdjchie
p2008
(lp2009
I11
aI43
aI5
aI0
asVjonobr1
p2010
(lp2011
I11
aI16
aI1
aI1
asVmyazhbin
p2012
(lp2013
I4
aI0
aI4
aI0
asVgenjinoguchi
p2014
(lp2015
I3
aI16
aI2
aI1
asVralstonpl2
p2016
(lp2017
I6
aI20
aI4
aI0
asVzigzackattack
p2018
(lp2019
I10
aI38
aI2
aI0
asVYkatesque
p2020
(lp2021
I9
aI30
aI3
aI3
asVlxe
p2022
(lp2023
I7
aI23
aI2
aI1
asVjmurzy
p2024
(lp2025
I6
aI50
aI1
aI0
asVdentearl
p2026
(lp2027
I7
aI28
aI4
aI3
asVacanyon
p2028
(lp2029
I10
aI25
aI1
aI0
asVulugbekov
p2030
(lp2031
I5
aI50
aI1
aI1
asVknt
p2032
(lp2033
I8
aI24
aI2
aI2
asVcarmelyne
p2034
(lp2035
I0
aI33
aI0
aI2
asVvocino
p2036
(lp2037
I1
aI34
aI0
aI2
asVmbigras
p2038
(lp2039
I4
aI18
aI2
aI2
asValitsiya
p2040
(lp2041
I7
aI14
aI3
aI0
asVsteveblue
p2042
(lp2043
I17
aI47
aI2
aI3
asVsandan
p2044
(lp2045
I1
aI20
aI2
aI0
asVblampe
p2046
(lp2047
I1
aI13
aI0
aI0
asVnornagon
p2048
(lp2049
I3
aI12
aI1
aI0
asVKalson
p2050
(lp2051
I3
aI8
aI2
aI0
asVSonnyTosco
p2052
(lp2053
I12
aI46
aI3
aI2
asVshaddi
p2054
(lp2055
I1
aI9
aI1
aI0
asVpjambet
p2056
(lp2057
I6
aI18
aI2
aI2
asVbhelx
p2058
(lp2059
I0
aI0
aI1
aI0
asVaninahpets
p2060
(lp2061
I7
aI20
aI4
aI1
asVandyperlitch
p2062
(lp2063
I5
aI19
aI3
aI0
asVlaurengordonfahn
p2064
(lp2065
I5
aI24
aI3
aI1
asVcraffel
p2066
(lp2067
I7
aI0
aI3
aI2
asVstrongh
p2068
(lp2069
I6
aI30
aI3
aI0
asVClaudiuC
p2070
(lp2071
I9
aI48
aI0
aI3
asViandeboisblanc
p2072
(lp2073
I6
aI29
aI2
aI2
asVBenvie
p2074
(lp2075
I5
aI17
aI0
aI1
asVyankov
p2076
(lp2077
I7
aI14
aI2
aI2
asVDoraKorpar
p2078
(lp2079
I2
aI17
aI2
aI0
asVsudarkoff
p2080
(lp2081
I9
aI22
aI0
aI1
asVtimurcatakli
p2082
(lp2083
I7
aI50
aI4
aI3
asVLavos
p2084
(lp2085
I7
aI25
aI2
aI1
asVmontlebalm
p2086
(lp2087
I5
aI28
aI1
aI1
asVcg-
p2088
(lp2089
I8
aI32
aI5
aI2
asVnlokare
p2090
(lp2091
I5
aI41
aI3
aI3
asVbertrandom
p2092
(lp2093
I9
aI0
aI1
aI2
asVmarkkolich
p2094
(lp2095
I0
aI44
aI0
aI0
asVsophiakc
p2096
(lp2097
I0
aI15
aI0
aI0
asVhyfather
p2098
(lp2099
I0
aI25
aI0
aI0
asVmaxgoedjen
p2100
(lp2101
I2
aI20
aI0
aI0
asVlucasderraugh
p2102
(lp2103
I6
aI16
aI1
aI2
asVprydonius
p2104
(lp2105
I3
aI19
aI2
aI0
asVebakan
p2106
(lp2107
I4
aI17
aI2
aI1
asVgeekrelief
p2108
(lp2109
I3
aI0
aI1
aI2
asVlindison
p2110
(lp2111
I4
aI33
aI1
aI1
asVsghiassy
p2112
(lp2113
I7
aI42
aI2
aI1
asVPolymathicCoder
p2114
(lp2115
I0
aI0
aI0
aI0
asVajgrande924
p2116
(lp2117
I6
aI34
aI3
aI0
asVasya999
p2118
(lp2119
I9
aI40
aI2
aI0
asVbcipolli
p2120
(lp2121
I9
aI27
aI4
aI2
asVNorthshoot
p2122
(lp2123
I12
aI17
aI2
aI0
asVadamzr
p2124
(lp2125
I4
aI49
aI3
aI0
asVakikoiwamizu
p2126
(lp2127
I7
aI30
aI3
aI0
asVbrennanMKE
p2128
(lp2129
I12
aI11
aI1
aI0
asVvihanchaudhry
p2130
(lp2131
I0
aI15
aI2
aI0
asVsteved
p2132
(lp2133
I5
aI16
aI1
aI1
asVDarktex
p2134
(lp2135
I3
aI34
aI2
aI1
asVrussellhaering
p2136
(lp2137
I7
aI19
aI1
aI2
asVlost-theory
p2138
(lp2139
I7
aI22
aI1
aI1
asVflarnie
p2140
(lp2141
I7
aI33
aI2
aI0
asVpas256
p2142
(lp2143
I11
aI38
aI1
aI0
asVfzf
p2144
(lp2145
I11
aI32
aI1
aI1
asVsinak
p2146
(lp2147
I1
aI25
aI1
aI1
asVmunkymack
p2148
(lp2149
I10
aI31
aI2
aI0
asVmagicgrl111
p2150
(lp2151
I6
aI36
aI2
aI2
asVjohannakate
p2152
(lp2153
I1
aI0
aI0
aI0
asVAnishSid
p2154
(lp2155
I6
aI40
aI1
aI1
asVnemigaservices
p2156
(lp2157
I9
aI50
aI1
aI0
asVphilipecasarotte
p2158
(lp2159
I6
aI50
aI2
aI2
asVjdeff
p2160
(lp2161
I4
aI33
aI3
aI0
asVehosseiniasl
p2162
(lp2163
I3
aI44
aI3
aI1
asVblevinstein
p2164
(lp2165
I3
aI18
aI3
aI0
asVianchesal
p2166
(lp2167
I0
aI27
aI0
aI0
asVmannykary
p2168
(lp2169
I5
aI45
aI2
aI0
asVclayallsopp
p2170
(lp2171
I4
aI10
aI2
aI2
asValykhank
p2172
(lp2173
I9
aI38
aI2
aI2
asViancze
p2174
(lp2175
I0
aI29
aI2
aI1
asVeboudrant
p2176
(lp2177
I9
aI43
aI1
aI0
asVryanj
p2178
(lp2179
I10
aI34
aI3
aI0
asVkaylanb
p2180
(lp2181
I1
aI0
aI2
aI0
asVcpill0789
p2182
(lp2183
I0
aI18
aI2
aI0
asVdivoxx
p2184
(lp2185
I12
aI44
aI2
aI0
asVdhrushilbadani
p2186
(lp2187
I0
aI13
aI1
aI0
asViamadawra
p2188
(lp2189
I9
aI22
aI2
aI0
asVjdoliner
p2190
(lp2191
I6
aI16
aI3
aI1
asVjacktrades
p2192
(lp2193
I5
aI35
aI1
aI2
asVknzconnor
p2194
(lp2195
I9
aI50
aI1
aI2
asVjason-osajima
p2196
(lp2197
I1
aI12
aI3
aI1
asVstechico
p2198
(lp2199
I8
aI44
aI1
aI1
asVazat-co
p2200
(lp2201
I18
aI44
aI2
aI3
asVymek
p2202
(lp2203
I10
aI20
aI1
aI1
asVwagenet
p2204
(lp2205
I9
aI8
aI1
aI2
asVigrigorik
p2206
(lp2207
I4
aI27
aI1
aI0
asVduncantl
p2208
(lp2209
I3
aI21
aI2
aI0
asVMarvelMoe
p2210
(lp2211
I4
aI17
aI2
aI0
asVdgrundfest
p2212
(lp2213
I3
aI18
aI2
aI0
asVthorbenprimke
p2214
(lp2215
I9
aI9
aI2
aI0
asVDeborahK
p2216
(lp2217
I1
aI28
aI2
aI2
asVmorganherlocker
p2218
(lp2219
I5
aI11
aI1
aI1
asValexland
p2220
(lp2221
I6
aI46
aI1
aI3
asVedshadi
p2222
(lp2223
I6
aI29
aI2
aI0
asVfrsyuki
p2224
(lp2225
I3
aI6
aI2
aI1
asVRestuta
p2226
(lp2227
I5
aI35
aI2
aI2
asVassaf
p2228
(lp2229
I7
aI0
aI0
aI2
asVclement
p2230
(lp2231
I1
aI25
aI1
aI0
asVelliottburris
p2232
(lp2233
I2
aI12
aI2
aI2
asVdanopia
p2234
(lp2235
I6
aI32
aI2
aI2
asVsamweiller
p2236
(lp2237
I7
aI30
aI2
aI0
asVSegFaultAX
p2238
(lp2239
I1
aI29
aI0
aI0
asVdvidsilva
p2240
(lp2241
I1
aI0
aI0
aI0
asVolgabot
p2242
(lp2243
I7
aI32
aI4
aI3
asVmattrobenolt
p2244
(lp2245
I7
aI50
aI1
aI2
asVlbarberiscanoni
p2246
(lp2247
I3
aI19
aI2
aI0
asVmeveridge
p2248
(lp2249
I5
aI24
aI1
aI0
asVskakanka
p2250
(lp2251
I5
aI0
aI7
aI0
asVjbankes
p2252
(lp2253
I6
aI23
aI3
aI0
asVnscricco
p2254
(lp2255
I10
aI21
aI1
aI1
asVrhonsby
p2256
(lp2257
I1
aI14
aI1
aI2
asVkode54
p2258
(lp2259
I1
aI14
aI1
aI0
asVdavegw
p2260
(lp2261
I7
aI30
aI1
aI0
asVvmharrel
p2262
(lp2263
I7
aI35
aI1
aI3
asVtechnikyle
p2264
(lp2265
I6
aI42
aI1
aI1
asVramijan
p2266
(lp2267
I6
aI28
aI2
aI1
asVtmacwill
p2268
(lp2269
I6
aI27
aI2
aI1
asVSakoMe
p2270
(lp2271
I1
aI0
aI0
aI0
asVmwylde
p2272
(lp2273
I8
aI11
aI1
aI1
asVggrumbley
p2274
(lp2275
I6
aI24
aI2
aI0
asVfrancislagueu
p2276
(lp2277
I1
aI38
aI4
aI0
asVallensarkisyan
p2278
(lp2279
I12
aI50
aI1
aI0
asVgfosco
p2280
(lp2281
I0
aI26
aI0
aI1
asVOllynov
p2282
(lp2283
I11
aI33
aI3
aI2
asVtimols
p2284
(lp2285
I0
aI47
aI0
aI0
asVamedhussaini
p2286
(lp2287
I4
aI28
aI1
aI1
asVaroman
p2288
(lp2289
I4
aI17
aI3
aI1
asVjakebellacera
p2290
(lp2291
I4
aI42
aI0
aI1
asVSauraus
p2292
(lp2293
I23
aI49
aI4
aI0
asVmattmakai
p2294
(lp2295
I8
aI17
aI4
aI3
asVlorinbeer
p2296
(lp2297
I6
aI22
aI2
aI0
asVJaesin
p2298
(lp2299
I1
aI9
aI0
aI0
asVdoubleyou
p2300
(lp2301
I4
aI39
aI1
aI0
asVvogievetsky
p2302
(lp2303
I5
aI11
aI2
aI1
asVziz
p2304
(lp2305
I0
aI20
aI0
aI0
asVPchelolo
p2306
(lp2307
I5
aI7
aI2
aI1
asVkevtakaoka
p2308
(lp2309
I5
aI18
aI4
aI0
asVc4ssio
p2310
(lp2311
I9
aI18
aI1
aI0
asVpencil
p2312
(lp2313
I3
aI6
aI1
aI1
asVAbleCoder
p2314
(lp2315
I9
aI19
aI1
aI0
asValecmce
p2316
(lp2317
I10
aI21
aI2
aI2
asVLowryTang
p2318
(lp2319
I2
aI20
aI2
aI0
asVwaynn
p2320
(lp2321
I0
aI22
aI0
aI0
asVaselder
p2322
(lp2323
I5
aI9
aI2
aI1
asVgabriel
p2324
(lp2325
I2
aI0
aI1
aI0
asVrahimftd
p2326
(lp2327
I5
aI31
aI2
aI0
asVfrohoff
p2328
(lp2329
I5
aI36
aI1
aI0
asValexforencich
p2330
(lp2331
I6
aI23
aI4
aI2
asVragaskar
p2332
(lp2333
I1
aI0
aI0
aI1
asVvframbach
p2334
(lp2335
I8
aI30
aI3
aI0
asVgeorgebashi
p2336
(lp2337
I4
aI21
aI2
aI1
asVsozercan
p2338
(lp2339
I4
aI10
aI3
aI1
asVcorbinu
p2340
(lp2341
I7
aI32
aI2
aI2
asVgdevanla
p2342
(lp2343
I0
aI26
aI0
aI0
asVdavidanthoff
p2344
(lp2345
I0
aI16
aI0
aI0
asVkuanb
p2346
(lp2347
I9
aI35
aI3
aI2
asVmundizzle
p2348
(lp2349
I4
aI26
aI1
aI1
asVairandfingers
p2350
(lp2351
I3
aI16
aI2
aI1
asVasarazan
p2352
(lp2353
I3
aI17
aI1
aI2
asVmjesuele
p2354
(lp2355
I4
aI39
aI3
aI3
asVsemmypurewal
p2356
(lp2357
I7
aI17
aI2
aI0
asVjnu
p2358
(lp2359
I2
aI6
aI2
aI0
asVicivgin
p2360
(lp2361
I5
aI22
aI2
aI1
asVtsharman
p2362
(lp2363
I5
aI2
aI1
aI1
asVyfalcon8
p2364
(lp2365
I5
aI33
aI2
aI2
asVwgester
p2366
(lp2367
I5
aI23
aI1
aI0
asVpramodsetlur
p2368
(lp2369
I3
aI25
aI4
aI0
asVlee-egist
p2370
(lp2371
I0
aI24
aI2
aI1
asVcyril-sf
p2372
(lp2373
I0
aI18
aI0
aI0
asVjsoverson
p2374
(lp2375
I0
aI41
aI0
aI1
asVgkop
p2376
(lp2377
I1
aI21
aI0
aI0
asVarmandocanals
p2378
(lp2379
I6
aI22
aI1
aI2
asVsmackesey
p2380
(lp2381
I1
aI11
aI3
aI0
asVtschuy
p2382
(lp2383
I1
aI0
aI2
aI0
asVnym
p2384
(lp2385
I13
aI26
aI3
aI1
asVdav
p2386
(lp2387
I18
aI23
aI0
aI0
asVcrocha700
p2388
(lp2389
I0
aI0
aI0
aI0
asVkenkouot
p2390
(lp2391
I7
aI34
aI2
aI1
asVdannyrich
p2392
(lp2393
I6
aI19
aI1
aI1
asVvtsvang
p2394
(lp2395
I5
aI9
aI0
aI3
asVgyakovlev
p2396
(lp2397
I1
aI0
aI0
aI0
asVfriscomm
p2398
(lp2399
I2
aI13
aI1
aI0
asVdeloschang
p2400
(lp2401
I3
aI0
aI1
aI2
asVcoxley
p2402
(lp2403
I5
aI37
aI1
aI0
asVhoisie
p2404
(lp2405
I5
aI16
aI1
aI1
asVbenjolitz
p2406
(lp2407
I10
aI32
aI1
aI0
asVjwoolston
p2408
(lp2409
I8
aI15
aI1
aI0
asVTylerLubeck
p2410
(lp2411
I9
aI20
aI2
aI1
asVgpatuwo
p2412
(lp2413
I6
aI27
aI2
aI0
asVilblackdragon
p2414
(lp2415
I2
aI47
aI2
aI3
asVdaltus
p2416
(lp2417
I6
aI29
aI1
aI0
asVjmathai
p2418
(lp2419
I9
aI19
aI0
aI3
asVarmon
p2420
(lp2421
I6
aI10
aI1
aI2
asVselbyk
p2422
(lp2423
I6
aI33
aI2
aI3
asVkingstenbanh
p2424
(lp2425
I8
aI37
aI2
aI2
asVfranziskagoltz
p2426
(lp2427
I8
aI34
aI0
aI0
asVthesteve0
p2428
(lp2429
I10
aI50
aI3
aI1
asVguyht
p2430
(lp2431
I7
aI18
aI2
aI2
asVcdeeter
p2432
(lp2433
I6
aI32
aI1
aI2
asVjmckible
p2434
(lp2435
I3
aI0
aI1
aI2
asVamiri
p2436
(lp2437
I7
aI20
aI1
aI1
asVzaletniy
p2438
(lp2439
I6
aI26
aI2
aI0
asVsmurthas
p2440
(lp2441
I1
aI11
aI0
aI1
asVzshannon
p2442
(lp2443
I1
aI15
aI1
aI0
asVkevinschaich
p2444
(lp2445
I3
aI43
aI2
aI3
asVtaganaka
p2446
(lp2447
I9
aI49
aI1
aI1
asVjosemarluedke
p2448
(lp2449
I6
aI40
aI6
aI3
asVgiladgray
p2450
(lp2451
I8
aI22
aI1
aI1
asVjluchiji
p2452
(lp2453
I3
aI19
aI2
aI1
asVLtspringthorpe
p2454
(lp2455
I3
aI18
aI2
aI0
asVlevbrie
p2456
(lp2457
I5
aI40
aI5
aI2
asVtheonlyjames
p2458
(lp2459
I7
aI26
aI3
aI1
asVlmEshoo
p2460
(lp2461
I5
aI33
aI3
aI1
asVlukebayes
p2462
(lp2463
I16
aI30
aI1
aI3
asVcbrazil
p2464
(lp2465
I5
aI14
aI3
aI0
asVDaniel15
p2466
(lp2467
I4
aI33
aI2
aI2
asVdyno
p2468
(lp2469
I4
aI20
aI3
aI1
asVsteel
p2470
(lp2471
I10
aI21
aI1
aI1
asVvasilionjea
p2472
(lp2473
I6
aI20
aI0
aI1
asVstouset
p2474
(lp2475
I9
aI10
aI1
aI1
asVGkjsdll
p2476
(lp2477
I2
aI17
aI1
aI1
asVjkriss
p2478
(lp2479
I8
aI24
aI2
aI2
asVtbatchelli
p2480
(lp2481
I8
aI24
aI2
aI2
asVtynril
p2482
(lp2483
I8
aI16
aI0
aI2
asVedouardswiac
p2484
(lp2485
I7
aI13
aI3
aI1
asVdrewbrokke
p2486
(lp2487
I0
aI0
aI0
aI0
asVsgravitz
p2488
(lp2489
I6
aI32
aI0
aI3
asVnanaze
p2490
(lp2491
I3
aI49
aI2
aI1
asVkristw
p2492
(lp2493
I9
aI21
aI4
aI1
asVCClerville
p2494
(lp2495
I5
aI17
aI1
aI2
asVztratar
p2496
(lp2497
I7
aI34
aI3
aI2
asVdglazkov
p2498
(lp2499
I10
aI6
aI4
aI3
asVfxstein
p2500
(lp2501
I10
aI50
aI0
aI0
asVscazan
p2502
(lp2503
I3
aI28
aI2
aI1
asVmanos
p2504
(lp2505
I7
aI41
aI2
aI2
asVnicknovitski
p2506
(lp2507
I6
aI23
aI2
aI2
asVjackzampolin
p2508
(lp2509
I6
aI14
aI1
aI0
asVSGColdSun
p2510
(lp2511
I0
aI0
aI0
aI0
asVdhananjay92
p2512
(lp2513
I7
aI22
aI2
aI3
asVChristopherMacGown
p2514
(lp2515
I10
aI33
aI0
aI0
asVloudnate
p2516
(lp2517
I10
aI13
aI1
aI2
asVflipcoder
p2518
(lp2519
I2
aI22
aI2
aI3
asVbretep
p2520
(lp2521
I9
aI43
aI1
aI3
asVparasyte
p2522
(lp2523
I6
aI35
aI2
aI3
asVcharlex
p2524
(lp2525
I9
aI29
aI2
aI2
asVaneilbaboo
p2526
(lp2527
I9
aI38
aI4
aI1
asVfstltna
p2528
(lp2529
I4
aI50
aI1
aI3
asVDEGoodmanWilson
p2530
(lp2531
I20
aI10
aI3
aI0
asVStuk
p2532
(lp2533
I6
aI20
aI1
aI1
asVKyleLeneau
p2534
(lp2535
I6
aI44
aI1
aI2
asVgtrevg
p2536
(lp2537
I1
aI24
aI0
aI0
asVcramforce
p2538
(lp2539
I4
aI4
aI1
aI2
asVzap-rowsdower
p2540
(lp2541
I3
aI16
aI3
aI0
asVInterrupt
p2542
(lp2543
I6
aI19
aI1
aI2
asVVeraxus
p2544
(lp2545
I0
aI30
aI1
aI2
asVsheganinans
p2546
(lp2547
I2
aI26
aI2
aI0
asVbwinkers
p2548
(lp2549
I8
aI50
aI1
aI2
asVcoreyramirezgomez
p2550
(lp2551
I0
aI0
aI0
aI0
asVajaska
p2552
(lp2553
I6
aI21
aI2
aI0
asVpancham348
p2554
(lp2555
I3
aI20
aI1
aI0
asVdpc
p2556
(lp2557
I6
aI33
aI1
aI1
asVjsdelfino
p2558
(lp2559
I7
aI0
aI0
aI0
asVccrazy88
p2560
(lp2561
I4
aI13
aI1
aI0
asVfrubioda
p2562
(lp2563
I9
aI20
aI8
aI0
asVshillcock
p2564
(lp2565
I1
aI18
aI0
aI0
asVjoebalancio
p2566
(lp2567
I8
aI28
aI1
aI0
asVSomeKittens
p2568
(lp2569
I7
aI42
aI2
aI1
asVjacobkossman
p2570
(lp2571
I2
aI22
aI2
aI1
asVmassenz
p2572
(lp2573
I12
aI34
aI2
aI1
asVrkitover
p2574
(lp2575
I0
aI46
aI0
aI0
asVchorankates
p2576
(lp2577
I9
aI30
aI0
aI2
asVjandrieu
p2578
(lp2579
I0
aI28
aI0
aI0
asVBlackshawk
p2580
(lp2581
I5
aI19
aI2
aI0
asVmariash
p2582
(lp2583
I3
aI4
aI1
aI0
asVsankargorthi
p2584
(lp2585
I4
aI16
aI2
aI0
asVyeshodhan
p2586
(lp2587
I6
aI50
aI3
aI2
asVswbiggart
p2588
(lp2589
I7
aI14
aI1
aI1
asVwnadeau
p2590
(lp2591
I7
aI16
aI2
aI2
asVKooshaba
p2592
(lp2593
I4
aI20
aI1
aI0
asVgalori
p2594
(lp2595
I10
aI38
aI4
aI1
asVMoocar
p2596
(lp2597
I4
aI32
aI2
aI0
asVHolyoke
p2598
(lp2599
I13
aI47
aI3
aI0
asVlavelle
p2600
(lp2601
I1
aI0
aI0
aI0
asVkbendick
p2602
(lp2603
I3
aI25
aI2
aI0
asVnetpro2k
p2604
(lp2605
I6
aI17
aI1
aI0
asVmikejihbe
p2606
(lp2607
I7
aI24
aI1
aI3
asVBretStateham
p2608
(lp2609
I7
aI38
aI2
aI2
asVkimsk
p2610
(lp2611
I7
aI39
aI3
aI3
asVbrennan
p2612
(lp2613
I12
aI27
aI3
aI2
asVdenis
p2614
(lp2615
I1
aI16
aI2
aI0
asVmykehsd
p2616
(lp2617
I12
aI37
aI2
aI3
asVkahwee
p2618
(lp2619
I10
aI38
aI2
aI1
asValsonkemp
p2620
(lp2621
I14
aI19
aI3
aI2
asVat15
p2622
(lp2623
I6
aI16
aI3
aI1
asVimownbey
p2624
(lp2625
I4
aI24
aI0
aI0
asVpeterhadlaw
p2626
(lp2627
I7
aI41
aI2
aI2
asVjoemeers82
p2628
(lp2629
I3
aI28
aI2
aI1
asVapokusin
p2630
(lp2631
I6
aI20
aI1
aI2
asVsunny-g
p2632
(lp2633
I4
aI22
aI3
aI0
asVapati04
p2634
(lp2635
I2
aI9
aI4
aI1
asVstpabhi
p2636
(lp2637
I0
aI32
aI2
aI0
asVlaynemcnish
p2638
(lp2639
I6
aI24
aI3
aI2
asVjennikins813
p2640
(lp2641
I1
aI22
aI4
aI1
asV100ideas
p2642
(lp2643
I9
aI15
aI1
aI0
asVbrennangaunce
p2644
(lp2645
I10
aI27
aI1
aI0
asVcjerdonek
p2646
(lp2647
I4
aI0
aI2
aI3
asVcweider
p2648
(lp2649
I1
aI12
aI1
aI0
asVlsblakk
p2650
(lp2651
I12
aI29
aI2
aI3
asVbluefeet
p2652
(lp2653
I6
aI37
aI0
aI3
asVgweinert
p2654
(lp2655
I4
aI14
aI3
aI0
asVOhMeadhbh
p2656
(lp2657
I14
aI26
aI0
aI0
asVqwzybug
p2658
(lp2659
I1
aI0
aI0
aI0
asVarchit
p2660
(lp2661
I8
aI24
aI3
aI3
asVdperny
p2662
(lp2663
I3
aI22
aI2
aI0
asVbridgpal
p2664
(lp2665
I5
aI21
aI1
aI2
asVAnalogJ
p2666
(lp2667
I6
aI48
aI3
aI1
asVdataxpress
p2668
(lp2669
I2
aI24
aI1
aI0
asVtoshok
p2670
(lp2671
I0
aI21
aI0
aI0
asVkzahel
p2672
(lp2673
I1
aI19
aI2
aI1
asVsophn11
p2674
(lp2675
I5
aI19
aI2
aI3
asVJustinLovesCompsci
p2676
(lp2677
I5
aI20
aI2
aI0
asVnhodges
p2678
(lp2679
I7
aI26
aI5
aI2
asVneovintage
p2680
(lp2681
I9
aI15
aI2
aI0
asVcimbriano
p2682
(lp2683
I1
aI16
aI3
aI0
asValexmattingley
p2684
(lp2685
I5
aI21
aI2
aI0
asVjsealey
p2686
(lp2687
I6
aI44
aI2
aI0
asVdain
p2688
(lp2689
I0
aI15
aI0
aI0
asVbrokenfingers
p2690
(lp2691
I3
aI18
aI2
aI0
asVxeb
p2692
(lp2693
I0
aI0
aI0
aI0
asVsammilechman
p2694
(lp2695
I7
aI22
aI2
aI2
asVsaams4u
p2696
(lp2697
I5
aI36
aI2
aI0
asVKlyanYosan
p2698
(lp2699
I5
aI0
aI0
aI0
asVfouad
p2700
(lp2701
I5
aI7
aI3
aI1
asVjalaziz
p2702
(lp2703
I4
aI25
aI2
aI0
asVgokul-raghuraman
p2704
(lp2705
I7
aI30
aI3
aI0
asVMateusZitelli
p2706
(lp2707
I5
aI17
aI2
aI3
asVhenrik-muehe
p2708
(lp2709
I6
aI25
aI6
aI2
asVonkarganjewar
p2710
(lp2711
I0
aI25
aI2
aI0
asVchexee
p2712
(lp2713
I10
aI24
aI3
aI3
asValexkehayias
p2714
(lp2715
I6
aI31
aI1
aI1
asVrzurad
p2716
(lp2717
I6
aI17
aI1
aI1
asVpikeas
p2718
(lp2719
I8
aI17
aI1
aI1
asVagee6
p2720
(lp2721
I6
aI25
aI3
aI0
asVctweney
p2722
(lp2723
I9
aI0
aI1
aI0
asVlyzidiamond
p2724
(lp2725
I6
aI50
aI2
aI2
asVsiggy
p2726
(lp2727
I9
aI23
aI2
aI0
asVajritch
p2728
(lp2729
I1
aI17
aI3
aI2
asVevanshortiss
p2730
(lp2731
I7
aI48
aI2
aI2
asVfrodenas
p2732
(lp2733
I12
aI18
aI6
aI1
asVmgadda
p2734
(lp2735
I9
aI26
aI1
aI0
asVbradurani
p2736
(lp2737
I8
aI30
aI2
aI1
asVbryceredd
p2738
(lp2739
I3
aI16
aI1
aI2
asVgsquire
p2740
(lp2741
I5
aI32
aI1
aI1
asVskotzko
p2742
(lp2743
I0
aI33
aI0
aI0
asVMartyMacGyver
p2744
(lp2745
I0
aI30
aI0
aI0
asVsrahim
p2746
(lp2747
I2
aI28
aI2
aI0
asVmhluska
p2748
(lp2749
I10
aI36
aI1
aI2
asVraxityo
p2750
(lp2751
I1
aI44
aI2
aI1
asVstakes
p2752
(lp2753
I9
aI45
aI4
aI2
asVvnataraj
p2754
(lp2755
I0
aI0
aI0
aI0
asVklueska
p2756
(lp2757
I8
aI13
aI4
aI1
asVtstullich
p2758
(lp2759
I6
aI15
aI1
aI1
asVcantino
p2760
(lp2761
I0
aI19
aI0
aI0
asVceruleanotter
p2762
(lp2763
I10
aI15
aI1
aI1
asVczarnega
p2764
(lp2765
I5
aI42
aI1
aI0
asVbbeaird
p2766
(lp2767
I0
aI50
aI4
aI0
asVholdenk
p2768
(lp2769
I11
aI29
aI1
aI3
asVmnemnion
p2770
(lp2771
I0
aI0
aI0
aI0
asVkevinfan23
p2772
(lp2773
I4
aI28
aI5
aI1
asValdeka
p2774
(lp2775
I20
aI20
aI2
aI0
asVnjdup
p2776
(lp2777
I7
aI45
aI2
aI1
asVdotku
p2778
(lp2779
I9
aI22
aI3
aI3
asVskotturi
p2780
(lp2781
I4
aI25
aI2
aI0
asVdustMason
p2782
(lp2783
I3
aI26
aI2
aI1
asVduro
p2784
(lp2785
I6
aI37
aI1
aI2
asVxtiancapil
p2786
(lp2787
I7
aI28
aI2
aI0
asVDevinMui
p2788
(lp2789
I0
aI36
aI1
aI0
asVmarcelchastain
p2790
(lp2791
I0
aI36
aI0
aI2
asVAdlai-Holler
p2792
(lp2793
I4
aI5
aI2
aI0
asVj9recurses
p2794
(lp2795
I5
aI20
aI3
aI1
asVmarcusguttenplan
p2796
(lp2797
I3
aI10
aI2
aI0
asVbananatron
p2798
(lp2799
I6
aI23
aI2
aI2
asValiatsis
p2800
(lp2801
I5
aI41
aI3
aI0
asVtjgrathwell
p2802
(lp2803
I4
aI11
aI1
aI1
asVStoneCypher
p2804
(lp2805
I1
aI50
aI0
aI3
asVjaykz52
p2806
(lp2807
I0
aI0
aI0
aI0
asVspence
p2808
(lp2809
I5
aI24
aI1
aI1
asVsricola
p2810
(lp2811
I4
aI11
aI1
aI0
asVescherba
p2812
(lp2813
I9
aI41
aI4
aI1
asVswerwath
p2814
(lp2815
I3
aI18
aI1
aI1
asVgmoothart
p2816
(lp2817
I3
aI15
aI1
aI0
asVphilipn
p2818
(lp2819
I5
aI0
aI1
aI0
as.